

Microchip Technology PIC18 LITE Macro Assembler V2.00 build -1524193055 
                                                                                               Wed Dec 04 21:31:03 2019

Microchip Technology Omniscient Code Generator v2.00 (Free mode) build 20180527130849
     1  0000                     
     2                           ; Version 2.00
     3                           ; Generated 27/05/2018 GMT
     4                           
     5                           ; 
     6                           ; Copyright Â© 2018, Microchip Technology Inc. and its subsidiaries ("Microchip")
     7                           ; All rights reserved.
     8                           ; 
     9                           ; This software is developed by Microchip Technology Inc. and its subsidiaries ("Microch
                                 ip").
    10                           ; 
    11                           ; Redistribution and use in source and binary forms, with or without modification, are
    12                           ; permitted provided that the following conditions are met:
    13                           ; 
    14                           ;     1. Redistributions of source code must retain the above copyright notice, this lis
                                 t of
    15                           ;        conditions and the following disclaimer.
    16                           ; 
    17                           ;     2. Redistributions in binary form must reproduce the above copyright notice, this 
                                 list
    18                           ;        of conditions and the following disclaimer in the documentation and/or other
    19                           ;        materials provided with the distribution.
    20                           ; 
    21                           ;     3. Microchip's name may not be used to endorse or promote products derived from th
                                 is
    22                           ;        software without specific prior written permission.
    23                           ; 
    24                           ; THIS SOFTWARE IS PROVIDED BY MICROCHIP "AS IS" AND ANY EXPRESS OR IMPLIED WARRANTIES,

    25                           ; INCLUDING, BUT NOT LIMITED TO, THE IMPLIED WARRANTIES OF MERCHANTABILITY AND FITNESS F
                                 OR
    26                           ; PURPOSE ARE DISCLAIMED.  IN NO EVENT SHALL MICROCHIP BE LIABLE FOR ANY DIRECT, INDIREC
                                 T,
    27                           ; INCIDENTAL, SPECIAL, EXEMPLARY, OR CONSEQUENTIAL DAMAGES (INCLUDING BUT NOT LIMITED TO
                                 
    28                           ; PROCUREMENT OF SUBSTITUTE GOODS OR SERVICES; LOSS OF USE, DATA OR PROFITS; OR BUSINESS
                                 
    29                           ; INTERRUPTION) HOWSOEVER CAUSED AND ON ANY THEORY OF LIABILITY, WHETHER IN CONTRACT, ST
                                 RICT
    30                           ; LIABILITY, OR TORT (INCLUDING NEGLIGENCE OR OTHERWISE) ARISING IN ANY WAY OUT OF THE U
                                 SE OF
    31                           ; THIS SOFTWARE, EVEN IF ADVISED OF THE POSSIBILITY OF SUCH DAMAGE.
    32                           ; 
    33                           
    34                           
    35                           ; 
    36                           ; Code-generator required, PIC18F4520 Definitions
    37                           ; 
    38  0000                     fsr0 equ 0FE9h
    39  0000                     fsr0h equ 0FEAh
    40  0000                     fsr0l equ 0FE9h
    41  0000                     fsr1 equ 0FE1h
    42  0000                     fsr1h equ 0FE2h
    43  0000                     fsr1l equ 0FE1h
    44  0000                     fsr2 equ 0FD9h
    45  0000                     fsr2h equ 0FDAh
    46  0000                     fsr2l equ 0FD9h
    47  0000                     indf0 equ 0FEFh
    48  0000                     indf1 equ 0FE7h
    49  0000                     indf2 equ 0FDFh
    50  0000                     intcon equ 0FF2h
    51  0000                     nvmcon equ 00h
    52  0000                     pcl equ 0FF9h
    53  0000                     pclath equ 0FFAh
    54  0000                     pclatu equ 0FFBh
    55  0000                     plusw0 equ 0FEBh
    56  0000                     plusw1 equ 0FE3h
    57  0000                     plusw2 equ 0FDBh
    58  0000                     postdec0 equ 0FEDh
    59  0000                     postdec1 equ 0FE5h
    60  0000                     postdec2 equ 0FDDh
    61  0000                     postinc0 equ 0FEEh
    62  0000                     postinc1 equ 0FE6h
    63  0000                     postinc2 equ 0FDEh
    64  0000                     preinc0 equ 0FECh
    65  0000                     preinc1 equ 0FE4h
    66  0000                     preinc2 equ 0FDCh
    67  0000                     prod equ 0FF3h
    68  0000                     prodh equ 0FF4h
    69  0000                     prodl equ 0FF3h
    70  0000                     status equ 0FD8h
    71  0000                     tablat equ 0FF5h
    72  0000                     tblptr equ 0FF6h
    73  0000                     tblptrh equ 0FF7h
    74  0000                     tblptrl equ 0FF6h
    75  0000                     tblptru equ 0FF8h
    76  0000                     tosl equ 0FFDh
    77  0000                     wreg equ 0FE8h
    78  0000                     
     2                           opt pagewidth 120
     3  0000                     byte0	macro	val
     4                           	(getbyte(val,0))
     5                           endm
     6  0000                     byte1	macro	val
     7                           	(getbyte(val,1))
     8                           endm
     9  0000                     byte2	macro	val
    10                           	(getbyte(val,2))
    11                           endm
    12  0000                     byte3	macro	val
    13                           	(getbyte(val,3))
    14                           endm
    15  0000                     byte4	macro	val
    16                           	(getbyte(val,4))
    17                           endm
    18  0000                     byte5	macro	val
    19                           	(getbyte(val,5))
    20                           endm
    21  0000                     byte6	macro	val
    22                           	(getbyte(val,6))
    23                           endm
    24  0000                     byte7	macro	val
    25                           	(getbyte(val,7))
    26                           endm
    27  0000                     getword	macro	val,pos
    28                           	(((val) >> (8 * pos)) and 0xffff)
    29                           endm
    30  0000                     word0	macro	val
    31                           	(getword(val,0))
    32                           endm
    33  0000                     word1	macro	val
    34                           	(getword(val,2))
    35                           endm
    36  0000                     word2	macro	val
    37                           	(getword(val,4))
    38                           endm
    39  0000                     word3	macro	val
    40                           	(getword(val,6))
    41                           endm
    42  0000                     gettword	macro	val,pos
    43                           	(((val) >> (8 * pos)) and 0xffffff)
    44                           endm
    45  0000                     tword0	macro	val
    46                           	(gettword(val,0))
    47                           endm
    48  0000                     tword1	macro	val
    49                           	(gettword(val,3))
    50                           endm
    51  0000                     tword2	macro	val
    52                           	(gettword(val,6))
    53                           endm
    54  0000                     getdword	macro	val,pos
    55                           	(((val) >> (8 * pos)) and 0xffffffff)
    56                           endm
    57  0000                     dword0	macro	val
    58                           	(getdword(val,0))
    59                           endm
    60  0000                     dword1	macro	val
    61                           	(getdword(val,4))
    62                           endm
    63  0000                     clrc   macro
    64                           	bcf	status,0
    65                           endm
    66  0000                     setc   macro
    67                           	bsf	status,0
    68                           endm
    69  0000                     clrz   macro
    70                           	bcf	status,2
    71                           endm
    72  0000                     setz   macro
    73                           	bsf	status,2
    74                           endm
    75  0000                     skipnz macro
    76                           	btfsc	status,2
    77                           endm
    78  0000                     skipz  macro
    79                           	btfss	status,2
    80                           endm
    81  0000                     skipnc macro
    82                           	btfsc	status,0
    83                           endm
    84  0000                     skipc  macro
    85                           	btfss	status,0
    86                           endm
    87  0000                     pushw macro
    88                           	movwf postinc1
    89                           endm
    90  0000                     pushf macro arg1
    91                           	movff arg1, postinc1
    92                           endm
    93  0000                     popw macro
    94                           	movf postdec1,f
    95                           	movf indf1,w
    96                           endm
    97  0000                     popf macro arg1
    98                           	movf postdec1,f
    99                           	movff indf1,arg1
   100                           endm
   101  0000                     popfc macro arg1
   102                           	movff plusw1,arg1
   103                           	decfsz fsr1,f
   104                           endm
   105  0000                     	global	__ramtop
   106                           	global	__accesstop
   107                           # 54 "C:\Program Files (x86)\Microchip\xc8\v2.00\pic\include\pic18f4520.h"
   108                           PORTA equ 0F80h ;# 
   109  0000                     # 273 "C:\Program Files (x86)\Microchip\xc8\v2.00\pic\include\pic18f4520.h"
   110                           PORTB equ 0F81h ;# 
   111  0000                     # 452 "C:\Program Files (x86)\Microchip\xc8\v2.00\pic\include\pic18f4520.h"
   112                           PORTC equ 0F82h ;# 
   113  0000                     # 634 "C:\Program Files (x86)\Microchip\xc8\v2.00\pic\include\pic18f4520.h"
   114                           PORTD equ 0F83h ;# 
   115  0000                     # 776 "C:\Program Files (x86)\Microchip\xc8\v2.00\pic\include\pic18f4520.h"
   116                           PORTE equ 0F84h ;# 
   117  0000                     # 979 "C:\Program Files (x86)\Microchip\xc8\v2.00\pic\include\pic18f4520.h"
   118                           LATA equ 0F89h ;# 
   119  0000                     # 1091 "C:\Program Files (x86)\Microchip\xc8\v2.00\pic\include\pic18f4520.h"
   120                           LATB equ 0F8Ah ;# 
   121  0000                     # 1203 "C:\Program Files (x86)\Microchip\xc8\v2.00\pic\include\pic18f4520.h"
   122                           LATC equ 0F8Bh ;# 
   123  0000                     # 1315 "C:\Program Files (x86)\Microchip\xc8\v2.00\pic\include\pic18f4520.h"
   124                           LATD equ 0F8Ch ;# 
   125  0000                     # 1427 "C:\Program Files (x86)\Microchip\xc8\v2.00\pic\include\pic18f4520.h"
   126                           LATE equ 0F8Dh ;# 
   127  0000                     # 1479 "C:\Program Files (x86)\Microchip\xc8\v2.00\pic\include\pic18f4520.h"
   128                           TRISA equ 0F92h ;# 
   129  0000                     # 1484 "C:\Program Files (x86)\Microchip\xc8\v2.00\pic\include\pic18f4520.h"
   130                           DDRA equ 0F92h ;# 
   131  0000                     # 1701 "C:\Program Files (x86)\Microchip\xc8\v2.00\pic\include\pic18f4520.h"
   132                           TRISB equ 0F93h ;# 
   133  0000                     # 1706 "C:\Program Files (x86)\Microchip\xc8\v2.00\pic\include\pic18f4520.h"
   134                           DDRB equ 0F93h ;# 
   135  0000                     # 1923 "C:\Program Files (x86)\Microchip\xc8\v2.00\pic\include\pic18f4520.h"
   136                           TRISC equ 0F94h ;# 
   137  0000                     # 1928 "C:\Program Files (x86)\Microchip\xc8\v2.00\pic\include\pic18f4520.h"
   138                           DDRC equ 0F94h ;# 
   139  0000                     # 2145 "C:\Program Files (x86)\Microchip\xc8\v2.00\pic\include\pic18f4520.h"
   140                           TRISD equ 0F95h ;# 
   141  0000                     # 2150 "C:\Program Files (x86)\Microchip\xc8\v2.00\pic\include\pic18f4520.h"
   142                           DDRD equ 0F95h ;# 
   143  0000                     # 2367 "C:\Program Files (x86)\Microchip\xc8\v2.00\pic\include\pic18f4520.h"
   144                           TRISE equ 0F96h ;# 
   145  0000                     # 2372 "C:\Program Files (x86)\Microchip\xc8\v2.00\pic\include\pic18f4520.h"
   146                           DDRE equ 0F96h ;# 
   147  0000                     # 2531 "C:\Program Files (x86)\Microchip\xc8\v2.00\pic\include\pic18f4520.h"
   148                           OSCTUNE equ 0F9Bh ;# 
   149  0000                     # 2596 "C:\Program Files (x86)\Microchip\xc8\v2.00\pic\include\pic18f4520.h"
   150                           PIE1 equ 0F9Dh ;# 
   151  0000                     # 2673 "C:\Program Files (x86)\Microchip\xc8\v2.00\pic\include\pic18f4520.h"
   152                           PIR1 equ 0F9Eh ;# 
   153  0000                     # 2750 "C:\Program Files (x86)\Microchip\xc8\v2.00\pic\include\pic18f4520.h"
   154                           IPR1 equ 0F9Fh ;# 
   155  0000                     # 2827 "C:\Program Files (x86)\Microchip\xc8\v2.00\pic\include\pic18f4520.h"
   156                           PIE2 equ 0FA0h ;# 
   157  0000                     # 2893 "C:\Program Files (x86)\Microchip\xc8\v2.00\pic\include\pic18f4520.h"
   158                           PIR2 equ 0FA1h ;# 
   159  0000                     # 2959 "C:\Program Files (x86)\Microchip\xc8\v2.00\pic\include\pic18f4520.h"
   160                           IPR2 equ 0FA2h ;# 
   161  0000                     # 3025 "C:\Program Files (x86)\Microchip\xc8\v2.00\pic\include\pic18f4520.h"
   162                           EECON1 equ 0FA6h ;# 
   163  0000                     # 3091 "C:\Program Files (x86)\Microchip\xc8\v2.00\pic\include\pic18f4520.h"
   164                           EECON2 equ 0FA7h ;# 
   165  0000                     # 3098 "C:\Program Files (x86)\Microchip\xc8\v2.00\pic\include\pic18f4520.h"
   166                           EEDATA equ 0FA8h ;# 
   167  0000                     # 3105 "C:\Program Files (x86)\Microchip\xc8\v2.00\pic\include\pic18f4520.h"
   168                           EEADR equ 0FA9h ;# 
   169  0000                     # 3112 "C:\Program Files (x86)\Microchip\xc8\v2.00\pic\include\pic18f4520.h"
   170                           RCSTA equ 0FABh ;# 
   171  0000                     # 3117 "C:\Program Files (x86)\Microchip\xc8\v2.00\pic\include\pic18f4520.h"
   172                           RCSTA1 equ 0FABh ;# 
   173  0000                     # 3322 "C:\Program Files (x86)\Microchip\xc8\v2.00\pic\include\pic18f4520.h"
   174                           TXSTA equ 0FACh ;# 
   175  0000                     # 3327 "C:\Program Files (x86)\Microchip\xc8\v2.00\pic\include\pic18f4520.h"
   176                           TXSTA1 equ 0FACh ;# 
   177  0000                     # 3578 "C:\Program Files (x86)\Microchip\xc8\v2.00\pic\include\pic18f4520.h"
   178                           TXREG equ 0FADh ;# 
   179  0000                     # 3583 "C:\Program Files (x86)\Microchip\xc8\v2.00\pic\include\pic18f4520.h"
   180                           TXREG1 equ 0FADh ;# 
   181  0000                     # 3590 "C:\Program Files (x86)\Microchip\xc8\v2.00\pic\include\pic18f4520.h"
   182                           RCREG equ 0FAEh ;# 
   183  0000                     # 3595 "C:\Program Files (x86)\Microchip\xc8\v2.00\pic\include\pic18f4520.h"
   184                           RCREG1 equ 0FAEh ;# 
   185  0000                     # 3602 "C:\Program Files (x86)\Microchip\xc8\v2.00\pic\include\pic18f4520.h"
   186                           SPBRG equ 0FAFh ;# 
   187  0000                     # 3607 "C:\Program Files (x86)\Microchip\xc8\v2.00\pic\include\pic18f4520.h"
   188                           SPBRG1 equ 0FAFh ;# 
   189  0000                     # 3614 "C:\Program Files (x86)\Microchip\xc8\v2.00\pic\include\pic18f4520.h"
   190                           SPBRGH equ 0FB0h ;# 
   191  0000                     # 3621 "C:\Program Files (x86)\Microchip\xc8\v2.00\pic\include\pic18f4520.h"
   192                           T3CON equ 0FB1h ;# 
   193  0000                     # 3733 "C:\Program Files (x86)\Microchip\xc8\v2.00\pic\include\pic18f4520.h"
   194                           TMR3 equ 0FB2h ;# 
   195  0000                     # 3740 "C:\Program Files (x86)\Microchip\xc8\v2.00\pic\include\pic18f4520.h"
   196                           TMR3L equ 0FB2h ;# 
   197  0000                     # 3747 "C:\Program Files (x86)\Microchip\xc8\v2.00\pic\include\pic18f4520.h"
   198                           TMR3H equ 0FB3h ;# 
   199  0000                     # 3754 "C:\Program Files (x86)\Microchip\xc8\v2.00\pic\include\pic18f4520.h"
   200                           CMCON equ 0FB4h ;# 
   201  0000                     # 3844 "C:\Program Files (x86)\Microchip\xc8\v2.00\pic\include\pic18f4520.h"
   202                           CVRCON equ 0FB5h ;# 
   203  0000                     # 3923 "C:\Program Files (x86)\Microchip\xc8\v2.00\pic\include\pic18f4520.h"
   204                           ECCP1AS equ 0FB6h ;# 
   205  0000                     # 3928 "C:\Program Files (x86)\Microchip\xc8\v2.00\pic\include\pic18f4520.h"
   206                           ECCPAS equ 0FB6h ;# 
   207  0000                     # 4085 "C:\Program Files (x86)\Microchip\xc8\v2.00\pic\include\pic18f4520.h"
   208                           PWM1CON equ 0FB7h ;# 
   209  0000                     # 4090 "C:\Program Files (x86)\Microchip\xc8\v2.00\pic\include\pic18f4520.h"
   210                           ECCP1DEL equ 0FB7h ;# 
   211  0000                     # 4223 "C:\Program Files (x86)\Microchip\xc8\v2.00\pic\include\pic18f4520.h"
   212                           BAUDCON equ 0FB8h ;# 
   213  0000                     # 4228 "C:\Program Files (x86)\Microchip\xc8\v2.00\pic\include\pic18f4520.h"
   214                           BAUDCTL equ 0FB8h ;# 
   215  0000                     # 4403 "C:\Program Files (x86)\Microchip\xc8\v2.00\pic\include\pic18f4520.h"
   216                           CCP2CON equ 0FBAh ;# 
   217  0000                     # 4482 "C:\Program Files (x86)\Microchip\xc8\v2.00\pic\include\pic18f4520.h"
   218                           CCPR2 equ 0FBBh ;# 
   219  0000                     # 4489 "C:\Program Files (x86)\Microchip\xc8\v2.00\pic\include\pic18f4520.h"
   220                           CCPR2L equ 0FBBh ;# 
   221  0000                     # 4496 "C:\Program Files (x86)\Microchip\xc8\v2.00\pic\include\pic18f4520.h"
   222                           CCPR2H equ 0FBCh ;# 
   223  0000                     # 4503 "C:\Program Files (x86)\Microchip\xc8\v2.00\pic\include\pic18f4520.h"
   224                           CCP1CON equ 0FBDh ;# 
   225  0000                     # 4600 "C:\Program Files (x86)\Microchip\xc8\v2.00\pic\include\pic18f4520.h"
   226                           CCPR1 equ 0FBEh ;# 
   227  0000                     # 4607 "C:\Program Files (x86)\Microchip\xc8\v2.00\pic\include\pic18f4520.h"
   228                           CCPR1L equ 0FBEh ;# 
   229  0000                     # 4614 "C:\Program Files (x86)\Microchip\xc8\v2.00\pic\include\pic18f4520.h"
   230                           CCPR1H equ 0FBFh ;# 
   231  0000                     # 4621 "C:\Program Files (x86)\Microchip\xc8\v2.00\pic\include\pic18f4520.h"
   232                           ADCON2 equ 0FC0h ;# 
   233  0000                     # 4692 "C:\Program Files (x86)\Microchip\xc8\v2.00\pic\include\pic18f4520.h"
   234                           ADCON1 equ 0FC1h ;# 
   235  0000                     # 4777 "C:\Program Files (x86)\Microchip\xc8\v2.00\pic\include\pic18f4520.h"
   236                           ADCON0 equ 0FC2h ;# 
   237  0000                     # 4896 "C:\Program Files (x86)\Microchip\xc8\v2.00\pic\include\pic18f4520.h"
   238                           ADRES equ 0FC3h ;# 
   239  0000                     # 4903 "C:\Program Files (x86)\Microchip\xc8\v2.00\pic\include\pic18f4520.h"
   240                           ADRESL equ 0FC3h ;# 
   241  0000                     # 4910 "C:\Program Files (x86)\Microchip\xc8\v2.00\pic\include\pic18f4520.h"
   242                           ADRESH equ 0FC4h ;# 
   243  0000                     # 4917 "C:\Program Files (x86)\Microchip\xc8\v2.00\pic\include\pic18f4520.h"
   244                           SSPCON2 equ 0FC5h ;# 
   245  0000                     # 5012 "C:\Program Files (x86)\Microchip\xc8\v2.00\pic\include\pic18f4520.h"
   246                           SSPCON1 equ 0FC6h ;# 
   247  0000                     # 5082 "C:\Program Files (x86)\Microchip\xc8\v2.00\pic\include\pic18f4520.h"
   248                           SSPSTAT equ 0FC7h ;# 
   249  0000                     # 5303 "C:\Program Files (x86)\Microchip\xc8\v2.00\pic\include\pic18f4520.h"
   250                           SSPADD equ 0FC8h ;# 
   251  0000                     # 5310 "C:\Program Files (x86)\Microchip\xc8\v2.00\pic\include\pic18f4520.h"
   252                           SSPBUF equ 0FC9h ;# 
   253  0000                     # 5317 "C:\Program Files (x86)\Microchip\xc8\v2.00\pic\include\pic18f4520.h"
   254                           T2CON equ 0FCAh ;# 
   255  0000                     # 5415 "C:\Program Files (x86)\Microchip\xc8\v2.00\pic\include\pic18f4520.h"
   256                           PR2 equ 0FCBh ;# 
   257  0000                     # 5420 "C:\Program Files (x86)\Microchip\xc8\v2.00\pic\include\pic18f4520.h"
   258                           MEMCON equ 0FCBh ;# 
   259  0000                     # 5525 "C:\Program Files (x86)\Microchip\xc8\v2.00\pic\include\pic18f4520.h"
   260                           TMR2 equ 0FCCh ;# 
   261  0000                     # 5532 "C:\Program Files (x86)\Microchip\xc8\v2.00\pic\include\pic18f4520.h"
   262                           T1CON equ 0FCDh ;# 
   263  0000                     # 5635 "C:\Program Files (x86)\Microchip\xc8\v2.00\pic\include\pic18f4520.h"
   264                           TMR1 equ 0FCEh ;# 
   265  0000                     # 5642 "C:\Program Files (x86)\Microchip\xc8\v2.00\pic\include\pic18f4520.h"
   266                           TMR1L equ 0FCEh ;# 
   267  0000                     # 5649 "C:\Program Files (x86)\Microchip\xc8\v2.00\pic\include\pic18f4520.h"
   268                           TMR1H equ 0FCFh ;# 
   269  0000                     # 5656 "C:\Program Files (x86)\Microchip\xc8\v2.00\pic\include\pic18f4520.h"
   270                           RCON equ 0FD0h ;# 
   271  0000                     # 5789 "C:\Program Files (x86)\Microchip\xc8\v2.00\pic\include\pic18f4520.h"
   272                           WDTCON equ 0FD1h ;# 
   273  0000                     # 5817 "C:\Program Files (x86)\Microchip\xc8\v2.00\pic\include\pic18f4520.h"
   274                           HLVDCON equ 0FD2h ;# 
   275  0000                     # 5822 "C:\Program Files (x86)\Microchip\xc8\v2.00\pic\include\pic18f4520.h"
   276                           LVDCON equ 0FD2h ;# 
   277  0000                     # 6087 "C:\Program Files (x86)\Microchip\xc8\v2.00\pic\include\pic18f4520.h"
   278                           OSCCON equ 0FD3h ;# 
   279  0000                     # 6170 "C:\Program Files (x86)\Microchip\xc8\v2.00\pic\include\pic18f4520.h"
   280                           T0CON equ 0FD5h ;# 
   281  0000                     # 6253 "C:\Program Files (x86)\Microchip\xc8\v2.00\pic\include\pic18f4520.h"
   282                           TMR0 equ 0FD6h ;# 
   283  0000                     # 6260 "C:\Program Files (x86)\Microchip\xc8\v2.00\pic\include\pic18f4520.h"
   284                           TMR0L equ 0FD6h ;# 
   285  0000                     # 6267 "C:\Program Files (x86)\Microchip\xc8\v2.00\pic\include\pic18f4520.h"
   286                           TMR0H equ 0FD7h ;# 
   287  0000                     # 6274 "C:\Program Files (x86)\Microchip\xc8\v2.00\pic\include\pic18f4520.h"
   288                           STATUS equ 0FD8h ;# 
   289  0000                     # 6345 "C:\Program Files (x86)\Microchip\xc8\v2.00\pic\include\pic18f4520.h"
   290                           FSR2 equ 0FD9h ;# 
   291  0000                     # 6352 "C:\Program Files (x86)\Microchip\xc8\v2.00\pic\include\pic18f4520.h"
   292                           FSR2L equ 0FD9h ;# 
   293  0000                     # 6359 "C:\Program Files (x86)\Microchip\xc8\v2.00\pic\include\pic18f4520.h"
   294                           FSR2H equ 0FDAh ;# 
   295  0000                     # 6366 "C:\Program Files (x86)\Microchip\xc8\v2.00\pic\include\pic18f4520.h"
   296                           PLUSW2 equ 0FDBh ;# 
   297  0000                     # 6373 "C:\Program Files (x86)\Microchip\xc8\v2.00\pic\include\pic18f4520.h"
   298                           PREINC2 equ 0FDCh ;# 
   299  0000                     # 6380 "C:\Program Files (x86)\Microchip\xc8\v2.00\pic\include\pic18f4520.h"
   300                           POSTDEC2 equ 0FDDh ;# 
   301  0000                     # 6387 "C:\Program Files (x86)\Microchip\xc8\v2.00\pic\include\pic18f4520.h"
   302                           POSTINC2 equ 0FDEh ;# 
   303  0000                     # 6394 "C:\Program Files (x86)\Microchip\xc8\v2.00\pic\include\pic18f4520.h"
   304                           INDF2 equ 0FDFh ;# 
   305  0000                     # 6401 "C:\Program Files (x86)\Microchip\xc8\v2.00\pic\include\pic18f4520.h"
   306                           BSR equ 0FE0h ;# 
   307  0000                     # 6408 "C:\Program Files (x86)\Microchip\xc8\v2.00\pic\include\pic18f4520.h"
   308                           FSR1 equ 0FE1h ;# 
   309  0000                     # 6415 "C:\Program Files (x86)\Microchip\xc8\v2.00\pic\include\pic18f4520.h"
   310                           FSR1L equ 0FE1h ;# 
   311  0000                     # 6422 "C:\Program Files (x86)\Microchip\xc8\v2.00\pic\include\pic18f4520.h"
   312                           FSR1H equ 0FE2h ;# 
   313  0000                     # 6429 "C:\Program Files (x86)\Microchip\xc8\v2.00\pic\include\pic18f4520.h"
   314                           PLUSW1 equ 0FE3h ;# 
   315  0000                     # 6436 "C:\Program Files (x86)\Microchip\xc8\v2.00\pic\include\pic18f4520.h"
   316                           PREINC1 equ 0FE4h ;# 
   317  0000                     # 6443 "C:\Program Files (x86)\Microchip\xc8\v2.00\pic\include\pic18f4520.h"
   318                           POSTDEC1 equ 0FE5h ;# 
   319  0000                     # 6450 "C:\Program Files (x86)\Microchip\xc8\v2.00\pic\include\pic18f4520.h"
   320                           POSTINC1 equ 0FE6h ;# 
   321  0000                     # 6457 "C:\Program Files (x86)\Microchip\xc8\v2.00\pic\include\pic18f4520.h"
   322                           INDF1 equ 0FE7h ;# 
   323  0000                     # 6464 "C:\Program Files (x86)\Microchip\xc8\v2.00\pic\include\pic18f4520.h"
   324                           WREG equ 0FE8h ;# 
   325  0000                     # 6476 "C:\Program Files (x86)\Microchip\xc8\v2.00\pic\include\pic18f4520.h"
   326                           FSR0 equ 0FE9h ;# 
   327  0000                     # 6483 "C:\Program Files (x86)\Microchip\xc8\v2.00\pic\include\pic18f4520.h"
   328                           FSR0L equ 0FE9h ;# 
   329  0000                     # 6490 "C:\Program Files (x86)\Microchip\xc8\v2.00\pic\include\pic18f4520.h"
   330                           FSR0H equ 0FEAh ;# 
   331  0000                     # 6497 "C:\Program Files (x86)\Microchip\xc8\v2.00\pic\include\pic18f4520.h"
   332                           PLUSW0 equ 0FEBh ;# 
   333  0000                     # 6504 "C:\Program Files (x86)\Microchip\xc8\v2.00\pic\include\pic18f4520.h"
   334                           PREINC0 equ 0FECh ;# 
   335  0000                     # 6511 "C:\Program Files (x86)\Microchip\xc8\v2.00\pic\include\pic18f4520.h"
   336                           POSTDEC0 equ 0FEDh ;# 
   337  0000                     # 6518 "C:\Program Files (x86)\Microchip\xc8\v2.00\pic\include\pic18f4520.h"
   338                           POSTINC0 equ 0FEEh ;# 
   339  0000                     # 6525 "C:\Program Files (x86)\Microchip\xc8\v2.00\pic\include\pic18f4520.h"
   340                           INDF0 equ 0FEFh ;# 
   341  0000                     # 6532 "C:\Program Files (x86)\Microchip\xc8\v2.00\pic\include\pic18f4520.h"
   342                           INTCON3 equ 0FF0h ;# 
   343  0000                     # 6624 "C:\Program Files (x86)\Microchip\xc8\v2.00\pic\include\pic18f4520.h"
   344                           INTCON2 equ 0FF1h ;# 
   345  0000                     # 6694 "C:\Program Files (x86)\Microchip\xc8\v2.00\pic\include\pic18f4520.h"
   346                           INTCON equ 0FF2h ;# 
   347  0000                     # 6811 "C:\Program Files (x86)\Microchip\xc8\v2.00\pic\include\pic18f4520.h"
   348                           PROD equ 0FF3h ;# 
   349  0000                     # 6818 "C:\Program Files (x86)\Microchip\xc8\v2.00\pic\include\pic18f4520.h"
   350                           PRODL equ 0FF3h ;# 
   351  0000                     # 6825 "C:\Program Files (x86)\Microchip\xc8\v2.00\pic\include\pic18f4520.h"
   352                           PRODH equ 0FF4h ;# 
   353  0000                     # 6832 "C:\Program Files (x86)\Microchip\xc8\v2.00\pic\include\pic18f4520.h"
   354                           TABLAT equ 0FF5h ;# 
   355  0000                     # 6841 "C:\Program Files (x86)\Microchip\xc8\v2.00\pic\include\pic18f4520.h"
   356                           TBLPTR equ 0FF6h ;# 
   357  0000                     # 6848 "C:\Program Files (x86)\Microchip\xc8\v2.00\pic\include\pic18f4520.h"
   358                           TBLPTRL equ 0FF6h ;# 
   359  0000                     # 6855 "C:\Program Files (x86)\Microchip\xc8\v2.00\pic\include\pic18f4520.h"
   360                           TBLPTRH equ 0FF7h ;# 
   361  0000                     # 6862 "C:\Program Files (x86)\Microchip\xc8\v2.00\pic\include\pic18f4520.h"
   362                           TBLPTRU equ 0FF8h ;# 
   363  0000                     # 6871 "C:\Program Files (x86)\Microchip\xc8\v2.00\pic\include\pic18f4520.h"
   364                           PCLAT equ 0FF9h ;# 
   365  0000                     # 6878 "C:\Program Files (x86)\Microchip\xc8\v2.00\pic\include\pic18f4520.h"
   366                           PC equ 0FF9h ;# 
   367  0000                     # 6885 "C:\Program Files (x86)\Microchip\xc8\v2.00\pic\include\pic18f4520.h"
   368                           PCL equ 0FF9h ;# 
   369  0000                     # 6892 "C:\Program Files (x86)\Microchip\xc8\v2.00\pic\include\pic18f4520.h"
   370                           PCLATH equ 0FFAh ;# 
   371  0000                     # 6899 "C:\Program Files (x86)\Microchip\xc8\v2.00\pic\include\pic18f4520.h"
   372                           PCLATU equ 0FFBh ;# 
   373  0000                     # 6906 "C:\Program Files (x86)\Microchip\xc8\v2.00\pic\include\pic18f4520.h"
   374                           STKPTR equ 0FFCh ;# 
   375  0000                     # 6980 "C:\Program Files (x86)\Microchip\xc8\v2.00\pic\include\pic18f4520.h"
   376                           TOS equ 0FFDh ;# 
   377  0000                     # 6987 "C:\Program Files (x86)\Microchip\xc8\v2.00\pic\include\pic18f4520.h"
   378                           TOSL equ 0FFDh ;# 
   379  0000                     # 6994 "C:\Program Files (x86)\Microchip\xc8\v2.00\pic\include\pic18f4520.h"
   380                           TOSH equ 0FFEh ;# 
   381  0000                     # 7001 "C:\Program Files (x86)\Microchip\xc8\v2.00\pic\include\pic18f4520.h"
   382                           TOSU equ 0FFFh ;# 
   383  0000                     # 54 "C:\Program Files (x86)\Microchip\xc8\v2.00\pic\include\pic18f4520.h"
   384                           PORTA equ 0F80h ;# 
   385  0000                     # 273 "C:\Program Files (x86)\Microchip\xc8\v2.00\pic\include\pic18f4520.h"
   386                           PORTB equ 0F81h ;# 
   387  0000                     # 452 "C:\Program Files (x86)\Microchip\xc8\v2.00\pic\include\pic18f4520.h"
   388                           PORTC equ 0F82h ;# 
   389  0000                     # 634 "C:\Program Files (x86)\Microchip\xc8\v2.00\pic\include\pic18f4520.h"
   390                           PORTD equ 0F83h ;# 
   391  0000                     # 776 "C:\Program Files (x86)\Microchip\xc8\v2.00\pic\include\pic18f4520.h"
   392                           PORTE equ 0F84h ;# 
   393  0000                     # 979 "C:\Program Files (x86)\Microchip\xc8\v2.00\pic\include\pic18f4520.h"
   394                           LATA equ 0F89h ;# 
   395  0000                     # 1091 "C:\Program Files (x86)\Microchip\xc8\v2.00\pic\include\pic18f4520.h"
   396                           LATB equ 0F8Ah ;# 
   397  0000                     # 1203 "C:\Program Files (x86)\Microchip\xc8\v2.00\pic\include\pic18f4520.h"
   398                           LATC equ 0F8Bh ;# 
   399  0000                     # 1315 "C:\Program Files (x86)\Microchip\xc8\v2.00\pic\include\pic18f4520.h"
   400                           LATD equ 0F8Ch ;# 
   401  0000                     # 1427 "C:\Program Files (x86)\Microchip\xc8\v2.00\pic\include\pic18f4520.h"
   402                           LATE equ 0F8Dh ;# 
   403  0000                     # 1479 "C:\Program Files (x86)\Microchip\xc8\v2.00\pic\include\pic18f4520.h"
   404                           TRISA equ 0F92h ;# 
   405  0000                     # 1484 "C:\Program Files (x86)\Microchip\xc8\v2.00\pic\include\pic18f4520.h"
   406                           DDRA equ 0F92h ;# 
   407  0000                     # 1701 "C:\Program Files (x86)\Microchip\xc8\v2.00\pic\include\pic18f4520.h"
   408                           TRISB equ 0F93h ;# 
   409  0000                     # 1706 "C:\Program Files (x86)\Microchip\xc8\v2.00\pic\include\pic18f4520.h"
   410                           DDRB equ 0F93h ;# 
   411  0000                     # 1923 "C:\Program Files (x86)\Microchip\xc8\v2.00\pic\include\pic18f4520.h"
   412                           TRISC equ 0F94h ;# 
   413  0000                     # 1928 "C:\Program Files (x86)\Microchip\xc8\v2.00\pic\include\pic18f4520.h"
   414                           DDRC equ 0F94h ;# 
   415  0000                     # 2145 "C:\Program Files (x86)\Microchip\xc8\v2.00\pic\include\pic18f4520.h"
   416                           TRISD equ 0F95h ;# 
   417  0000                     # 2150 "C:\Program Files (x86)\Microchip\xc8\v2.00\pic\include\pic18f4520.h"
   418                           DDRD equ 0F95h ;# 
   419  0000                     # 2367 "C:\Program Files (x86)\Microchip\xc8\v2.00\pic\include\pic18f4520.h"
   420                           TRISE equ 0F96h ;# 
   421  0000                     # 2372 "C:\Program Files (x86)\Microchip\xc8\v2.00\pic\include\pic18f4520.h"
   422                           DDRE equ 0F96h ;# 
   423  0000                     # 2531 "C:\Program Files (x86)\Microchip\xc8\v2.00\pic\include\pic18f4520.h"
   424                           OSCTUNE equ 0F9Bh ;# 
   425  0000                     # 2596 "C:\Program Files (x86)\Microchip\xc8\v2.00\pic\include\pic18f4520.h"
   426                           PIE1 equ 0F9Dh ;# 
   427  0000                     # 2673 "C:\Program Files (x86)\Microchip\xc8\v2.00\pic\include\pic18f4520.h"
   428                           PIR1 equ 0F9Eh ;# 
   429  0000                     # 2750 "C:\Program Files (x86)\Microchip\xc8\v2.00\pic\include\pic18f4520.h"
   430                           IPR1 equ 0F9Fh ;# 
   431  0000                     # 2827 "C:\Program Files (x86)\Microchip\xc8\v2.00\pic\include\pic18f4520.h"
   432                           PIE2 equ 0FA0h ;# 
   433  0000                     # 2893 "C:\Program Files (x86)\Microchip\xc8\v2.00\pic\include\pic18f4520.h"
   434                           PIR2 equ 0FA1h ;# 
   435  0000                     # 2959 "C:\Program Files (x86)\Microchip\xc8\v2.00\pic\include\pic18f4520.h"
   436                           IPR2 equ 0FA2h ;# 
   437  0000                     # 3025 "C:\Program Files (x86)\Microchip\xc8\v2.00\pic\include\pic18f4520.h"
   438                           EECON1 equ 0FA6h ;# 
   439  0000                     # 3091 "C:\Program Files (x86)\Microchip\xc8\v2.00\pic\include\pic18f4520.h"
   440                           EECON2 equ 0FA7h ;# 
   441  0000                     # 3098 "C:\Program Files (x86)\Microchip\xc8\v2.00\pic\include\pic18f4520.h"
   442                           EEDATA equ 0FA8h ;# 
   443  0000                     # 3105 "C:\Program Files (x86)\Microchip\xc8\v2.00\pic\include\pic18f4520.h"
   444                           EEADR equ 0FA9h ;# 
   445  0000                     # 3112 "C:\Program Files (x86)\Microchip\xc8\v2.00\pic\include\pic18f4520.h"
   446                           RCSTA equ 0FABh ;# 
   447  0000                     # 3117 "C:\Program Files (x86)\Microchip\xc8\v2.00\pic\include\pic18f4520.h"
   448                           RCSTA1 equ 0FABh ;# 
   449  0000                     # 3322 "C:\Program Files (x86)\Microchip\xc8\v2.00\pic\include\pic18f4520.h"
   450                           TXSTA equ 0FACh ;# 
   451  0000                     # 3327 "C:\Program Files (x86)\Microchip\xc8\v2.00\pic\include\pic18f4520.h"
   452                           TXSTA1 equ 0FACh ;# 
   453  0000                     # 3578 "C:\Program Files (x86)\Microchip\xc8\v2.00\pic\include\pic18f4520.h"
   454                           TXREG equ 0FADh ;# 
   455  0000                     # 3583 "C:\Program Files (x86)\Microchip\xc8\v2.00\pic\include\pic18f4520.h"
   456                           TXREG1 equ 0FADh ;# 
   457  0000                     # 3590 "C:\Program Files (x86)\Microchip\xc8\v2.00\pic\include\pic18f4520.h"
   458                           RCREG equ 0FAEh ;# 
   459  0000                     # 3595 "C:\Program Files (x86)\Microchip\xc8\v2.00\pic\include\pic18f4520.h"
   460                           RCREG1 equ 0FAEh ;# 
   461  0000                     # 3602 "C:\Program Files (x86)\Microchip\xc8\v2.00\pic\include\pic18f4520.h"
   462                           SPBRG equ 0FAFh ;# 
   463  0000                     # 3607 "C:\Program Files (x86)\Microchip\xc8\v2.00\pic\include\pic18f4520.h"
   464                           SPBRG1 equ 0FAFh ;# 
   465  0000                     # 3614 "C:\Program Files (x86)\Microchip\xc8\v2.00\pic\include\pic18f4520.h"
   466                           SPBRGH equ 0FB0h ;# 
   467  0000                     # 3621 "C:\Program Files (x86)\Microchip\xc8\v2.00\pic\include\pic18f4520.h"
   468                           T3CON equ 0FB1h ;# 
   469  0000                     # 3733 "C:\Program Files (x86)\Microchip\xc8\v2.00\pic\include\pic18f4520.h"
   470                           TMR3 equ 0FB2h ;# 
   471  0000                     # 3740 "C:\Program Files (x86)\Microchip\xc8\v2.00\pic\include\pic18f4520.h"
   472                           TMR3L equ 0FB2h ;# 
   473  0000                     # 3747 "C:\Program Files (x86)\Microchip\xc8\v2.00\pic\include\pic18f4520.h"
   474                           TMR3H equ 0FB3h ;# 
   475  0000                     # 3754 "C:\Program Files (x86)\Microchip\xc8\v2.00\pic\include\pic18f4520.h"
   476                           CMCON equ 0FB4h ;# 
   477  0000                     # 3844 "C:\Program Files (x86)\Microchip\xc8\v2.00\pic\include\pic18f4520.h"
   478                           CVRCON equ 0FB5h ;# 
   479  0000                     # 3923 "C:\Program Files (x86)\Microchip\xc8\v2.00\pic\include\pic18f4520.h"
   480                           ECCP1AS equ 0FB6h ;# 
   481  0000                     # 3928 "C:\Program Files (x86)\Microchip\xc8\v2.00\pic\include\pic18f4520.h"
   482                           ECCPAS equ 0FB6h ;# 
   483  0000                     # 4085 "C:\Program Files (x86)\Microchip\xc8\v2.00\pic\include\pic18f4520.h"
   484                           PWM1CON equ 0FB7h ;# 
   485  0000                     # 4090 "C:\Program Files (x86)\Microchip\xc8\v2.00\pic\include\pic18f4520.h"
   486                           ECCP1DEL equ 0FB7h ;# 
   487  0000                     # 4223 "C:\Program Files (x86)\Microchip\xc8\v2.00\pic\include\pic18f4520.h"
   488                           BAUDCON equ 0FB8h ;# 
   489  0000                     # 4228 "C:\Program Files (x86)\Microchip\xc8\v2.00\pic\include\pic18f4520.h"
   490                           BAUDCTL equ 0FB8h ;# 
   491  0000                     # 4403 "C:\Program Files (x86)\Microchip\xc8\v2.00\pic\include\pic18f4520.h"
   492                           CCP2CON equ 0FBAh ;# 
   493  0000                     # 4482 "C:\Program Files (x86)\Microchip\xc8\v2.00\pic\include\pic18f4520.h"
   494                           CCPR2 equ 0FBBh ;# 
   495  0000                     # 4489 "C:\Program Files (x86)\Microchip\xc8\v2.00\pic\include\pic18f4520.h"
   496                           CCPR2L equ 0FBBh ;# 
   497  0000                     # 4496 "C:\Program Files (x86)\Microchip\xc8\v2.00\pic\include\pic18f4520.h"
   498                           CCPR2H equ 0FBCh ;# 
   499  0000                     # 4503 "C:\Program Files (x86)\Microchip\xc8\v2.00\pic\include\pic18f4520.h"
   500                           CCP1CON equ 0FBDh ;# 
   501  0000                     # 4600 "C:\Program Files (x86)\Microchip\xc8\v2.00\pic\include\pic18f4520.h"
   502                           CCPR1 equ 0FBEh ;# 
   503  0000                     # 4607 "C:\Program Files (x86)\Microchip\xc8\v2.00\pic\include\pic18f4520.h"
   504                           CCPR1L equ 0FBEh ;# 
   505  0000                     # 4614 "C:\Program Files (x86)\Microchip\xc8\v2.00\pic\include\pic18f4520.h"
   506                           CCPR1H equ 0FBFh ;# 
   507  0000                     # 4621 "C:\Program Files (x86)\Microchip\xc8\v2.00\pic\include\pic18f4520.h"
   508                           ADCON2 equ 0FC0h ;# 
   509  0000                     # 4692 "C:\Program Files (x86)\Microchip\xc8\v2.00\pic\include\pic18f4520.h"
   510                           ADCON1 equ 0FC1h ;# 
   511  0000                     # 4777 "C:\Program Files (x86)\Microchip\xc8\v2.00\pic\include\pic18f4520.h"
   512                           ADCON0 equ 0FC2h ;# 
   513  0000                     # 4896 "C:\Program Files (x86)\Microchip\xc8\v2.00\pic\include\pic18f4520.h"
   514                           ADRES equ 0FC3h ;# 
   515  0000                     # 4903 "C:\Program Files (x86)\Microchip\xc8\v2.00\pic\include\pic18f4520.h"
   516                           ADRESL equ 0FC3h ;# 
   517  0000                     # 4910 "C:\Program Files (x86)\Microchip\xc8\v2.00\pic\include\pic18f4520.h"
   518                           ADRESH equ 0FC4h ;# 
   519  0000                     # 4917 "C:\Program Files (x86)\Microchip\xc8\v2.00\pic\include\pic18f4520.h"
   520                           SSPCON2 equ 0FC5h ;# 
   521  0000                     # 5012 "C:\Program Files (x86)\Microchip\xc8\v2.00\pic\include\pic18f4520.h"
   522                           SSPCON1 equ 0FC6h ;# 
   523  0000                     # 5082 "C:\Program Files (x86)\Microchip\xc8\v2.00\pic\include\pic18f4520.h"
   524                           SSPSTAT equ 0FC7h ;# 
   525  0000                     # 5303 "C:\Program Files (x86)\Microchip\xc8\v2.00\pic\include\pic18f4520.h"
   526                           SSPADD equ 0FC8h ;# 
   527  0000                     # 5310 "C:\Program Files (x86)\Microchip\xc8\v2.00\pic\include\pic18f4520.h"
   528                           SSPBUF equ 0FC9h ;# 
   529  0000                     # 5317 "C:\Program Files (x86)\Microchip\xc8\v2.00\pic\include\pic18f4520.h"
   530                           T2CON equ 0FCAh ;# 
   531  0000                     # 5415 "C:\Program Files (x86)\Microchip\xc8\v2.00\pic\include\pic18f4520.h"
   532                           PR2 equ 0FCBh ;# 
   533  0000                     # 5420 "C:\Program Files (x86)\Microchip\xc8\v2.00\pic\include\pic18f4520.h"
   534                           MEMCON equ 0FCBh ;# 
   535  0000                     # 5525 "C:\Program Files (x86)\Microchip\xc8\v2.00\pic\include\pic18f4520.h"
   536                           TMR2 equ 0FCCh ;# 
   537  0000                     # 5532 "C:\Program Files (x86)\Microchip\xc8\v2.00\pic\include\pic18f4520.h"
   538                           T1CON equ 0FCDh ;# 
   539  0000                     # 5635 "C:\Program Files (x86)\Microchip\xc8\v2.00\pic\include\pic18f4520.h"
   540                           TMR1 equ 0FCEh ;# 
   541  0000                     # 5642 "C:\Program Files (x86)\Microchip\xc8\v2.00\pic\include\pic18f4520.h"
   542                           TMR1L equ 0FCEh ;# 
   543  0000                     # 5649 "C:\Program Files (x86)\Microchip\xc8\v2.00\pic\include\pic18f4520.h"
   544                           TMR1H equ 0FCFh ;# 
   545  0000                     # 5656 "C:\Program Files (x86)\Microchip\xc8\v2.00\pic\include\pic18f4520.h"
   546                           RCON equ 0FD0h ;# 
   547  0000                     # 5789 "C:\Program Files (x86)\Microchip\xc8\v2.00\pic\include\pic18f4520.h"
   548                           WDTCON equ 0FD1h ;# 
   549  0000                     # 5817 "C:\Program Files (x86)\Microchip\xc8\v2.00\pic\include\pic18f4520.h"
   550                           HLVDCON equ 0FD2h ;# 
   551  0000                     # 5822 "C:\Program Files (x86)\Microchip\xc8\v2.00\pic\include\pic18f4520.h"
   552                           LVDCON equ 0FD2h ;# 
   553  0000                     # 6087 "C:\Program Files (x86)\Microchip\xc8\v2.00\pic\include\pic18f4520.h"
   554                           OSCCON equ 0FD3h ;# 
   555  0000                     # 6170 "C:\Program Files (x86)\Microchip\xc8\v2.00\pic\include\pic18f4520.h"
   556                           T0CON equ 0FD5h ;# 
   557  0000                     # 6253 "C:\Program Files (x86)\Microchip\xc8\v2.00\pic\include\pic18f4520.h"
   558                           TMR0 equ 0FD6h ;# 
   559  0000                     # 6260 "C:\Program Files (x86)\Microchip\xc8\v2.00\pic\include\pic18f4520.h"
   560                           TMR0L equ 0FD6h ;# 
   561  0000                     # 6267 "C:\Program Files (x86)\Microchip\xc8\v2.00\pic\include\pic18f4520.h"
   562                           TMR0H equ 0FD7h ;# 
   563  0000                     # 6274 "C:\Program Files (x86)\Microchip\xc8\v2.00\pic\include\pic18f4520.h"
   564                           STATUS equ 0FD8h ;# 
   565  0000                     # 6345 "C:\Program Files (x86)\Microchip\xc8\v2.00\pic\include\pic18f4520.h"
   566                           FSR2 equ 0FD9h ;# 
   567  0000                     # 6352 "C:\Program Files (x86)\Microchip\xc8\v2.00\pic\include\pic18f4520.h"
   568                           FSR2L equ 0FD9h ;# 
   569  0000                     # 6359 "C:\Program Files (x86)\Microchip\xc8\v2.00\pic\include\pic18f4520.h"
   570                           FSR2H equ 0FDAh ;# 
   571  0000                     # 6366 "C:\Program Files (x86)\Microchip\xc8\v2.00\pic\include\pic18f4520.h"
   572                           PLUSW2 equ 0FDBh ;# 
   573  0000                     # 6373 "C:\Program Files (x86)\Microchip\xc8\v2.00\pic\include\pic18f4520.h"
   574                           PREINC2 equ 0FDCh ;# 
   575  0000                     # 6380 "C:\Program Files (x86)\Microchip\xc8\v2.00\pic\include\pic18f4520.h"
   576                           POSTDEC2 equ 0FDDh ;# 
   577  0000                     # 6387 "C:\Program Files (x86)\Microchip\xc8\v2.00\pic\include\pic18f4520.h"
   578                           POSTINC2 equ 0FDEh ;# 
   579  0000                     # 6394 "C:\Program Files (x86)\Microchip\xc8\v2.00\pic\include\pic18f4520.h"
   580                           INDF2 equ 0FDFh ;# 
   581  0000                     # 6401 "C:\Program Files (x86)\Microchip\xc8\v2.00\pic\include\pic18f4520.h"
   582                           BSR equ 0FE0h ;# 
   583  0000                     # 6408 "C:\Program Files (x86)\Microchip\xc8\v2.00\pic\include\pic18f4520.h"
   584                           FSR1 equ 0FE1h ;# 
   585  0000                     # 6415 "C:\Program Files (x86)\Microchip\xc8\v2.00\pic\include\pic18f4520.h"
   586                           FSR1L equ 0FE1h ;# 
   587  0000                     # 6422 "C:\Program Files (x86)\Microchip\xc8\v2.00\pic\include\pic18f4520.h"
   588                           FSR1H equ 0FE2h ;# 
   589  0000                     # 6429 "C:\Program Files (x86)\Microchip\xc8\v2.00\pic\include\pic18f4520.h"
   590                           PLUSW1 equ 0FE3h ;# 
   591  0000                     # 6436 "C:\Program Files (x86)\Microchip\xc8\v2.00\pic\include\pic18f4520.h"
   592                           PREINC1 equ 0FE4h ;# 
   593  0000                     # 6443 "C:\Program Files (x86)\Microchip\xc8\v2.00\pic\include\pic18f4520.h"
   594                           POSTDEC1 equ 0FE5h ;# 
   595  0000                     # 6450 "C:\Program Files (x86)\Microchip\xc8\v2.00\pic\include\pic18f4520.h"
   596                           POSTINC1 equ 0FE6h ;# 
   597  0000                     # 6457 "C:\Program Files (x86)\Microchip\xc8\v2.00\pic\include\pic18f4520.h"
   598                           INDF1 equ 0FE7h ;# 
   599  0000                     # 6464 "C:\Program Files (x86)\Microchip\xc8\v2.00\pic\include\pic18f4520.h"
   600                           WREG equ 0FE8h ;# 
   601  0000                     # 6476 "C:\Program Files (x86)\Microchip\xc8\v2.00\pic\include\pic18f4520.h"
   602                           FSR0 equ 0FE9h ;# 
   603  0000                     # 6483 "C:\Program Files (x86)\Microchip\xc8\v2.00\pic\include\pic18f4520.h"
   604                           FSR0L equ 0FE9h ;# 
   605  0000                     # 6490 "C:\Program Files (x86)\Microchip\xc8\v2.00\pic\include\pic18f4520.h"
   606                           FSR0H equ 0FEAh ;# 
   607  0000                     # 6497 "C:\Program Files (x86)\Microchip\xc8\v2.00\pic\include\pic18f4520.h"
   608                           PLUSW0 equ 0FEBh ;# 
   609  0000                     # 6504 "C:\Program Files (x86)\Microchip\xc8\v2.00\pic\include\pic18f4520.h"
   610                           PREINC0 equ 0FECh ;# 
   611  0000                     # 6511 "C:\Program Files (x86)\Microchip\xc8\v2.00\pic\include\pic18f4520.h"
   612                           POSTDEC0 equ 0FEDh ;# 
   613  0000                     # 6518 "C:\Program Files (x86)\Microchip\xc8\v2.00\pic\include\pic18f4520.h"
   614                           POSTINC0 equ 0FEEh ;# 
   615  0000                     # 6525 "C:\Program Files (x86)\Microchip\xc8\v2.00\pic\include\pic18f4520.h"
   616                           INDF0 equ 0FEFh ;# 
   617  0000                     # 6532 "C:\Program Files (x86)\Microchip\xc8\v2.00\pic\include\pic18f4520.h"
   618                           INTCON3 equ 0FF0h ;# 
   619  0000                     # 6624 "C:\Program Files (x86)\Microchip\xc8\v2.00\pic\include\pic18f4520.h"
   620                           INTCON2 equ 0FF1h ;# 
   621  0000                     # 6694 "C:\Program Files (x86)\Microchip\xc8\v2.00\pic\include\pic18f4520.h"
   622                           INTCON equ 0FF2h ;# 
   623  0000                     # 6811 "C:\Program Files (x86)\Microchip\xc8\v2.00\pic\include\pic18f4520.h"
   624                           PROD equ 0FF3h ;# 
   625  0000                     # 6818 "C:\Program Files (x86)\Microchip\xc8\v2.00\pic\include\pic18f4520.h"
   626                           PRODL equ 0FF3h ;# 
   627  0000                     # 6825 "C:\Program Files (x86)\Microchip\xc8\v2.00\pic\include\pic18f4520.h"
   628                           PRODH equ 0FF4h ;# 
   629  0000                     # 6832 "C:\Program Files (x86)\Microchip\xc8\v2.00\pic\include\pic18f4520.h"
   630                           TABLAT equ 0FF5h ;# 
   631  0000                     # 6841 "C:\Program Files (x86)\Microchip\xc8\v2.00\pic\include\pic18f4520.h"
   632                           TBLPTR equ 0FF6h ;# 
   633  0000                     # 6848 "C:\Program Files (x86)\Microchip\xc8\v2.00\pic\include\pic18f4520.h"
   634                           TBLPTRL equ 0FF6h ;# 
   635  0000                     # 6855 "C:\Program Files (x86)\Microchip\xc8\v2.00\pic\include\pic18f4520.h"
   636                           TBLPTRH equ 0FF7h ;# 
   637  0000                     # 6862 "C:\Program Files (x86)\Microchip\xc8\v2.00\pic\include\pic18f4520.h"
   638                           TBLPTRU equ 0FF8h ;# 
   639  0000                     # 6871 "C:\Program Files (x86)\Microchip\xc8\v2.00\pic\include\pic18f4520.h"
   640                           PCLAT equ 0FF9h ;# 
   641  0000                     # 6878 "C:\Program Files (x86)\Microchip\xc8\v2.00\pic\include\pic18f4520.h"
   642                           PC equ 0FF9h ;# 
   643  0000                     # 6885 "C:\Program Files (x86)\Microchip\xc8\v2.00\pic\include\pic18f4520.h"
   644                           PCL equ 0FF9h ;# 
   645  0000                     # 6892 "C:\Program Files (x86)\Microchip\xc8\v2.00\pic\include\pic18f4520.h"
   646                           PCLATH equ 0FFAh ;# 
   647  0000                     # 6899 "C:\Program Files (x86)\Microchip\xc8\v2.00\pic\include\pic18f4520.h"
   648                           PCLATU equ 0FFBh ;# 
   649  0000                     # 6906 "C:\Program Files (x86)\Microchip\xc8\v2.00\pic\include\pic18f4520.h"
   650                           STKPTR equ 0FFCh ;# 
   651  0000                     # 6980 "C:\Program Files (x86)\Microchip\xc8\v2.00\pic\include\pic18f4520.h"
   652                           TOS equ 0FFDh ;# 
   653  0000                     # 6987 "C:\Program Files (x86)\Microchip\xc8\v2.00\pic\include\pic18f4520.h"
   654                           TOSL equ 0FFDh ;# 
   655  0000                     # 6994 "C:\Program Files (x86)\Microchip\xc8\v2.00\pic\include\pic18f4520.h"
   656                           TOSH equ 0FFEh ;# 
   657  0000                     # 7001 "C:\Program Files (x86)\Microchip\xc8\v2.00\pic\include\pic18f4520.h"
   658                           TOSU equ 0FFFh ;# 
   659  0000                     	FNCALL	_main,_config
   660                           	FNCALL	_main,_lcd_clear
   661                           	FNCALL	_main,_lcd_init
   662                           	FNCALL	_main,_lcd_puts
   663                           	FNCALL	_lcd_puts,_lcd_write
   664                           	FNCALL	_lcd_init,_lcd_clear
   665                           	FNCALL	_lcd_init,_lcd_write
   666                           	FNCALL	_lcd_clear,_lcd_write
   667                           	FNROOT	_main
   668                           	FNCALL	_tmr,_abrirPorta
   669                           	FNCALL	_tmr,_alarme
   670                           	FNCALL	_tmr,_desligAlarme
   671                           	FNCALL	_tmr,_trocarSenha
   672                           	FNCALL	_trocarSenha,_lcd_goto
   673                           	FNCALL	_trocarSenha,i2_lcd_clear
   674                           	FNCALL	_trocarSenha,i2_lcd_puts
   675                           	FNCALL	_desligAlarme,i2_lcd_clear
   676                           	FNCALL	_desligAlarme,i2_lcd_puts
   677                           	FNCALL	_alarme,_lcd_goto
   678                           	FNCALL	_alarme,i2_lcd_clear
   679                           	FNCALL	_alarme,i2_lcd_puts
   680                           	FNCALL	_lcd_goto,i2_lcd_write
   681                           	FNCALL	_abrirPorta,i2_lcd_clear
   682                           	FNCALL	_abrirPorta,i2_lcd_puts
   683                           	FNCALL	i2_lcd_puts,i2_lcd_write
   684                           	FNCALL	i2_lcd_clear,i2_lcd_write
   685                           	FNCALL	intlevel2,_tmr
   686                           	global	intlevel2
   687                           	FNROOT	intlevel2
   688                           	global	_flag1
   689                           	global	_flag
   690                           	global	_PORTCbits
   691                           _PORTCbits	set	0xF82
   692  0000                     	global	_PORTE
   693                           _PORTE	set	0xF84
   694  0000                     	global	_PORTB
   695                           _PORTB	set	0xF81
   696  0000                     	global	_PORTD
   697                           _PORTD	set	0xF83
   698  0000                     	global	_RCREG
   699                           _RCREG	set	0xFAE
   700  0000                     	global	_PORTBbits
   701                           _PORTBbits	set	0xF81
   702  0000                     	global	_SPBRG
   703                           _SPBRG	set	0xFAF
   704  0000                     	global	_BAUDCON
   705                           _BAUDCON	set	0xFB8
   706  0000                     	global	_RCSTA
   707                           _RCSTA	set	0xFAB
   708  0000                     	global	_TXSTA
   709                           _TXSTA	set	0xFAC
   710  0000                     	global	_ADCON2
   711                           _ADCON2	set	0xFC0
   712  0000                     	global	_ADCON1
   713                           _ADCON1	set	0xFC1
   714  0000                     	global	_ADCON0
   715                           _ADCON0	set	0xFC2
   716  0000                     	global	_T0CON
   717                           _T0CON	set	0xFD5
   718  0000                     	global	_INTCON
   719                           _INTCON	set	0xFF2
   720  0000                     	global	_OSCCON
   721                           _OSCCON	set	0xFD3
   722  0000                     	global	_TRISE
   723                           _TRISE	set	0xF96
   724  0000                     	global	_TRISD
   725                           _TRISD	set	0xF95
   726  0000                     	global	_TRISC
   727                           _TRISC	set	0xF94
   728  0000                     	global	_TRISB
   729                           _TRISB	set	0xF93
   730  0000                     	global	_TRISA
   731                           _TRISA	set	0xF92
   732  0000                     	global	_LE0
   733                           _LE0	set	0x7C68
   734  0000                     	global	_LE1
   735                           _LE1	set	0x7C69
   736  0000                     	global	_RCIF
   737                           _RCIF	set	0x7CF5
   738  0000                     	global	_RCIP
   739                           _RCIP	set	0x7CFD
   740  0000                     	global	_RCIE
   741                           _RCIE	set	0x7CED
   742  0000                     	global	_IPEN
   743                           _IPEN	set	0x7E87
   744  0000                     psect	smallconst,class=SMALLCONST,space=0,reloc=2,noexec
   745                           global __psmallconst
   746                           __psmallconst:
   747  000600                     	db	0
   748  000600  00                 	
   749                           STR_9:
   750  000601                     	db	83	;'S'
   751  000601  53                 	db	101	;'e'
   752  000602  65                 	db	110	;'n'
   753  000603  6E                 	db	104	;'h'
   754  000604  68                 	db	97	;'a'
   755  000605  61                 	db	32
   756  000606  20                 	db	97	;'a'
   757  000607  61                 	db	108	;'l'
   758  000608  6C                 	db	116	;'t'
   759  000609  74                 	db	101	;'e'
   760  00060A  65                 	db	114	;'r'
   761  00060B  72                 	db	97	;'a'
   762  00060C  61                 	db	100	;'d'
   763  00060D  64                 	db	97	;'a'
   764  00060E  61                 	db	32
   765  00060F  20                 	db	99	;'c'
   766  000610  63                 	db	111	;'o'
   767  000611  6F                 	db	109	;'m'
   768  000612  6D                 	db	32
   769  000613  20                 	db	115	;'s'
   770  000614  73                 	db	117	;'u'
   771  000615  75                 	db	99	;'c'
   772  000616  63                 	db	101	;'e'
   773  000617  65                 	db	115	;'s'
   774  000618  73                 	db	115	;'s'
   775  000619  73                 	db	111	;'o'
   776  00061A  6F                 	db	58	;':'
   777  00061B  3A                 	db	0
   778  00061C  00                 	
   779                           STR_3:
   780  00061D                     	db	68	;'D'
   781  00061D  44                 	db	105	;'i'
   782  00061E  69                 	db	103	;'g'
   783  00061F  67                 	db	105	;'i'
   784  000620  69                 	db	116	;'t'
   785  000621  74                 	db	101	;'e'
   786  000622  65                 	db	32
   787  000623  20                 	db	115	;'s'
   788  000624  73                 	db	117	;'u'
   789  000625  75                 	db	97	;'a'
   790  000626  61                 	db	32
   791  000627  20                 	db	110	;'n'
   792  000628  6E                 	db	111	;'o'
   793  000629  6F                 	db	118	;'v'
   794  00062A  76                 	db	97	;'a'
   795  00062B  61                 	db	32
   796  00062C  20                 	db	115	;'s'
   797  00062D  73                 	db	101	;'e'
   798  00062E  65                 	db	110	;'n'
   799  00062F  6E                 	db	104	;'h'
   800  000630  68                 	db	97	;'a'
   801  000631  61                 	db	58	;':'
   802  000632  3A                 	db	0
   803  000633  00                 	
   804                           STR_13:
   805  000634                     	db	68	;'D'
   806  000634  44                 	db	105	;'i'
   807  000635  69                 	db	103	;'g'
   808  000636  67                 	db	105	;'i'
   809  000637  69                 	db	116	;'t'
   810  000638  74                 	db	101	;'e'
   811  000639  65                 	db	32
   812  00063A  20                 	db	97	;'a'
   813  00063B  61                 	db	32
   814  00063C  20                 	db	115	;'s'
   815  00063D  73                 	db	101	;'e'
   816  00063E  65                 	db	110	;'n'
   817  00063F  6E                 	db	104	;'h'
   818  000640  68                 	db	97	;'a'
   819  000641  61                 	db	32
   820  000642  20                 	db	112	;'p'
   821  000643  70                 	db	97	;'a'
   822  000644  61                 	db	100	;'d'
   823  000645  64                 	db	114	;'r'
   824  000646  72                 	db	97	;'a'
   825  000647  61                 	db	111	;'o'
   826  000648  6F                 	db	58	;':'
   827  000649  3A                 	db	0
   828  00064A  00                 	
   829                           STR_17:
   830  00064B                     	db	68	;'D'
   831  00064B  44                 	db	105	;'i'
   832  00064C  69                 	db	103	;'g'
   833  00064D  67                 	db	105	;'i'
   834  00064E  69                 	db	116	;'t'
   835  00064F  74                 	db	101	;'e'
   836  000650  65                 	db	32
   837  000651  20                 	db	115	;'s'
   838  000652  73                 	db	117	;'u'
   839  000653  75                 	db	97	;'a'
   840  000654  61                 	db	32
   841  000655  20                 	db	115	;'s'
   842  000656  73                 	db	101	;'e'
   843  000657  65                 	db	110	;'n'
   844  000658  6E                 	db	104	;'h'
   845  000659  68                 	db	97	;'a'
   846  00065A  61                 	db	58	;':'
   847  00065B  3A                 	db	32
   848  00065C  20                 	db	0
   849  00065D  00                 	
   850                           STR_7:
   851  00065E                     	db	83	;'S'
   852  00065E  53                 	db	101	;'e'
   853  00065F  65                 	db	110	;'n'
   854  000660  6E                 	db	104	;'h'
   855  000661  68                 	db	97	;'a'
   856  000662  61                 	db	32
   857  000663  20                 	db	110	;'n'
   858  000664  6E                 	db	-29
   859  000665  E3                 	db	111	;'o'
   860  000666  6F                 	db	32
   861  000667  20                 	db	97	;'a'
   862  000668  61                 	db	108	;'l'
   863  000669  6C                 	db	116	;'t'
   864  00066A  74                 	db	101	;'e'
   865  00066B  65                 	db	114	;'r'
   866  00066C  72                 	db	97	;'a'
   867  00066D  61                 	db	100	;'d'
   868  00066E  64                 	db	97	;'a'
   869  00066F  61                 	db	0
   870  000670  00                 	
   871                           STR_8:
   872  000671                     	db	68	;'D'
   873  000671  44                 	db	105	;'i'
   874  000672  69                 	db	103	;'g'
   875  000673  67                 	db	105	;'i'
   876  000674  69                 	db	116	;'t'
   877  000675  74                 	db	101	;'e'
   878  000676  65                 	db	32
   879  000677  20                 	db	115	;'s'
   880  000678  73                 	db	117	;'u'
   881  000679  75                 	db	97	;'a'
   882  00067A  61                 	db	32
   883  00067B  20                 	db	115	;'s'
   884  00067C  73                 	db	101	;'e'
   885  00067D  65                 	db	110	;'n'
   886  00067E  6E                 	db	104	;'h'
   887  00067F  68                 	db	97	;'a'
   888  000680  61                 	db	58	;':'
   889  000681  3A                 	db	0
   890  000682  00                 	
   891                           STR_2:
   892  000683                     	db	77	;'M'
   893  000683  4D                 	db	111	;'o'
   894  000684  6F                 	db	100	;'d'
   895  000685  64                 	db	111	;'o'
   896  000686  6F                 	db	32
   897  000687  20                 	db	109	;'m'
   898  000688  6D                 	db	117	;'u'
   899  000689  75                 	db	100	;'d'
   900  00068A  64                 	db	97	;'a'
   901  00068B  61                 	db	114	;'r'
   902  00068C  72                 	db	32
   903  00068D  20                 	db	115	;'s'
   904  00068E  73                 	db	101	;'e'
   905  00068F  65                 	db	110	;'n'
   906  000690  6E                 	db	104	;'h'
   907  000691  68                 	db	97	;'a'
   908  000692  61                 	db	58	;':'
   909  000693  3A                 	db	0
   910  000694  00                 	
   911                           STR_15:
   912  000695                     	db	68	;'D'
   913  000695  44                 	db	105	;'i'
   914  000696  69                 	db	103	;'g'
   915  000697  67                 	db	105	;'i'
   916  000698  69                 	db	116	;'t'
   917  000699  74                 	db	101	;'e'
   918  00069A  65                 	db	32
   919  00069B  20                 	db	115	;'s'
   920  00069C  73                 	db	117	;'u'
   921  00069D  75                 	db	97	;'a'
   922  00069E  61                 	db	32
   923  00069F  20                 	db	115	;'s'
   924  0006A0  73                 	db	101	;'e'
   925  0006A1  65                 	db	110	;'n'
   926  0006A2  6E                 	db	104	;'h'
   927  0006A3  68                 	db	97	;'a'
   928  0006A4  61                 	db	0
   929  0006A5  00                 	
   930                           STR_14:
   931  0006A6                     	db	65	;'A'
   932  0006A6  41                 	db	108	;'l'
   933  0006A7  6C                 	db	97	;'a'
   934  0006A8  61                 	db	114	;'r'
   935  0006A9  72                 	db	109	;'m'
   936  0006AA  6D                 	db	101	;'e'
   937  0006AB  65                 	db	32
   938  0006AC  20                 	db	68	;'D'
   939  0006AD  44                 	db	101	;'e'
   940  0006AE  65                 	db	115	;'s'
   941  0006AF  73                 	db	108	;'l'
   942  0006B0  6C                 	db	105	;'i'
   943  0006B1  69                 	db	103	;'g'
   944  0006B2  67                 	db	97	;'a'
   945  0006B3  61                 	db	100	;'d'
   946  0006B4  64                 	db	111	;'o'
   947  0006B5  6F                 	db	0
   948  0006B6  00                 	
   949                           STR_4:
   950  0006B7                     	db	83	;'S'
   951  0006B7  53                 	db	101	;'e'
   952  0006B8  65                 	db	110	;'n'
   953  0006B9  6E                 	db	104	;'h'
   954  0006BA  68                 	db	97	;'a'
   955  0006BB  61                 	db	32
   956  0006BC  20                 	db	97	;'a'
   957  0006BD  61                 	db	108	;'l'
   958  0006BE  6C                 	db	116	;'t'
   959  0006BF  74                 	db	101	;'e'
   960  0006C0  65                 	db	114	;'r'
   961  0006C1  72                 	db	97	;'a'
   962  0006C2  61                 	db	100	;'d'
   963  0006C3  64                 	db	97	;'a'
   964  0006C4  61                 	db	0
   965  0006C5  00                 	
   966                           STR_6:
   967  0006C6                     	db	80	;'P'
   968  0006C6  50                 	db	111	;'o'
   969  0006C7  6F                 	db	114	;'r'
   970  0006C8  72                 	db	116	;'t'
   971  0006C9  74                 	db	97	;'a'
   972  0006CA  61                 	db	32
   973  0006CB  20                 	db	102	;'f'
   974  0006CC  66                 	db	101	;'e'
   975  0006CD  65                 	db	99	;'c'
   976  0006CE  63                 	db	104	;'h'
   977  0006CF  68                 	db	97	;'a'
   978  0006D0  61                 	db	100	;'d'
   979  0006D1  64                 	db	97	;'a'
   980  0006D2  61                 	db	0
   981  0006D3  00                 	
   982                           STR_1:
   983  0006D4                     	db	80	;'P'
   984  0006D4  50                 	db	111	;'o'
   985  0006D5  6F                 	db	114	;'r'
   986  0006D6  72                 	db	116	;'t'
   987  0006D7  74                 	db	97	;'a'
   988  0006D8  61                 	db	32
   989  0006D9  20                 	db	65	;'A'
   990  0006DA  41                 	db	98	;'b'
   991  0006DB  62                 	db	101	;'e'
   992  0006DC  65                 	db	114	;'r'
   993  0006DD  72                 	db	116	;'t'
   994  0006DE  74                 	db	97	;'a'
   995  0006DF  61                 	db	0
   996  0006E0  00                 	
   997                           STR_5:
   998  0006E1                     	db	80	;'P'
   999  0006E1  50                 	db	111	;'o'
  1000  0006E2  6F                 	db	114	;'r'
  1001  0006E3  72                 	db	116	;'t'
  1002  0006E4  74                 	db	97	;'a'
  1003  0006E5  61                 	db	32
  1004  0006E6  20                 	db	97	;'a'
  1005  0006E7  61                 	db	98	;'b'
  1006  0006E8  62                 	db	101	;'e'
  1007  0006E9  65                 	db	114	;'r'
  1008  0006EA  72                 	db	116	;'t'
  1009  0006EB  74                 	db	97	;'a'
  1010  0006EC  61                 	db	0
  1011  0006ED  00                 	
  1012                           STR_12:
  1013  0006EE                     	db	32
  1014  0006EE  20                 	db	32
  1015  0006EF  20                 	db	32
  1016  0006F0  20                 	db	32
  1017  0006F1  20                 	db	65	;'A'
  1018  0006F2  41                 	db	76	;'L'
  1019  0006F3  4C                 	db	65	;'A'
  1020  0006F4  41                 	db	82	;'R'
  1021  0006F5  52                 	db	77	;'M'
  1022  0006F6  4D                 	db	69	;'E'
  1023  0006F7  45                 	db	0
  1024  0006F8  00                 STR_10	equ	STR_5+0
  1025  0000                     STR_11	equ	STR_6+0
  1026  0000                     STR_16	equ	STR_8+0
  1027  0000                     ; #config settings
  1028                           global __CFG_OSC$INTIO67
  1029                           __CFG_OSC$INTIO67 equ 0x0
  1030  0000                     global __CFG_FCMEN$OFF
  1031                           __CFG_FCMEN$OFF equ 0x0
  1032  0000                     global __CFG_IESO$OFF
  1033                           __CFG_IESO$OFF equ 0x0
  1034  0000                     global __CFG_PWRT$OFF
  1035                           __CFG_PWRT$OFF equ 0x0
  1036  0000                     global __CFG_BOREN$SBORDIS
  1037                           __CFG_BOREN$SBORDIS equ 0x0
  1038  0000                     global __CFG_BORV$3
  1039                           __CFG_BORV$3 equ 0x0
  1040  0000                     global __CFG_WDT$OFF
  1041                           __CFG_WDT$OFF equ 0x0
  1042  0000                     global __CFG_WDTPS$32768
  1043                           __CFG_WDTPS$32768 equ 0x0
  1044  0000                     global __CFG_CCP2MX$PORTC
  1045                           __CFG_CCP2MX$PORTC equ 0x0
  1046  0000                     global __CFG_PBADEN$OFF
  1047                           __CFG_PBADEN$OFF equ 0x0
  1048  0000                     global __CFG_LPT1OSC$OFF
  1049                           __CFG_LPT1OSC$OFF equ 0x0
  1050  0000                     global __CFG_MCLRE$ON
  1051                           __CFG_MCLRE$ON equ 0x0
  1052  0000                     global __CFG_STVREN$ON
  1053                           __CFG_STVREN$ON equ 0x0
  1054  0000                     global __CFG_LVP$OFF
  1055                           __CFG_LVP$OFF equ 0x0
  1056  0000                     global __CFG_XINST$OFF
  1057                           __CFG_XINST$OFF equ 0x0
  1058  0000                     global __CFG_CP0$OFF
  1059                           __CFG_CP0$OFF equ 0x0
  1060  0000                     global __CFG_CP1$OFF
  1061                           __CFG_CP1$OFF equ 0x0
  1062  0000                     global __CFG_CP2$OFF
  1063                           __CFG_CP2$OFF equ 0x0
  1064  0000                     global __CFG_CP3$OFF
  1065                           __CFG_CP3$OFF equ 0x0
  1066  0000                     global __CFG_CPB$OFF
  1067                           __CFG_CPB$OFF equ 0x0
  1068  0000                     global __CFG_CPD$OFF
  1069                           __CFG_CPD$OFF equ 0x0
  1070  0000                     global __CFG_WRT0$OFF
  1071                           __CFG_WRT0$OFF equ 0x0
  1072  0000                     global __CFG_WRT1$OFF
  1073                           __CFG_WRT1$OFF equ 0x0
  1074  0000                     global __CFG_WRT2$OFF
  1075                           __CFG_WRT2$OFF equ 0x0
  1076  0000                     global __CFG_WRT3$OFF
  1077                           __CFG_WRT3$OFF equ 0x0
  1078  0000                     global __CFG_WRTC$OFF
  1079                           __CFG_WRTC$OFF equ 0x0
  1080  0000                     global __CFG_WRTB$OFF
  1081                           __CFG_WRTB$OFF equ 0x0
  1082  0000                     global __CFG_WRTD$OFF
  1083                           __CFG_WRTD$OFF equ 0x0
  1084  0000                     global __CFG_EBTR0$OFF
  1085                           __CFG_EBTR0$OFF equ 0x0
  1086  0000                     global __CFG_EBTR1$OFF
  1087                           __CFG_EBTR1$OFF equ 0x0
  1088  0000                     global __CFG_EBTR2$OFF
  1089                           __CFG_EBTR2$OFF equ 0x0
  1090  0000                     global __CFG_EBTR3$OFF
  1091                           __CFG_EBTR3$OFF equ 0x0
  1092  0000                     global __CFG_EBTRB$OFF
  1093                           __CFG_EBTRB$OFF equ 0x0
  1094  0000                     	file	"C:\Users\LUCASB~1\AppData\Local\Temp\sbtc."
  1095                           	line	#
  1096                           psect	cinit,class=CODE,delta=1,reloc=2
  1097                           global __pcinit
  1098                           __pcinit:
  1099  000B3A                     global start_initialization
  1100                           start_initialization:
  1101  000B3A                     
  1102                           global __initialization
  1103                           __initialization:
  1104  000B3A                     psect	bssCOMRAM,class=COMRAM,space=1,noexec
  1105                           global __pbssCOMRAM
  1106                           __pbssCOMRAM:
  1107  00000F                     	global	_flag1
  1108                           _flag1:
  1109  00000F                            ds      2
  1110  00000F                     	global	_flag
  1111                           _flag:
  1112  000011                            ds      2
  1113  000011                     	file	"C:\Users\LUCASB~1\AppData\Local\Temp\sbtc."
  1114                           	line	#
  1115                           psect	cinit
  1116                           ; Clear objects allocated to COMRAM (4 bytes)
  1117                           	global __pbssCOMRAM
  1118                           clrf	(__pbssCOMRAM+3)&0xffh,c
  1119  000B3A  6A12               clrf	(__pbssCOMRAM+2)&0xffh,c
  1120  000B3C  6A11               clrf	(__pbssCOMRAM+1)&0xffh,c
  1121  000B3E  6A10               clrf	(__pbssCOMRAM+0)&0xffh,c
  1122  000B40  6A0F               psect cinit,class=CODE,delta=1
  1123                           global end_of_initialization,__end_of__initialization
  1124                           
  1125                           ;End of C runtime variable initialization code
  1126                           
  1127                           end_of_initialization:
  1128  000B42                     __end_of__initialization:
  1129  000B42                     	bcf int$flags,0,c ;clear compiler interrupt flag (level 1)
  1130  000B42  9013               	bcf int$flags,1,c ;clear compiler interrupt flag (level 2)
  1131  000B44  9213               	GLOBAL	__Lsmallconst
  1132                           	movlw	low highword(__Lsmallconst)
  1133  000B46  0E00               	movwf	tblptru
  1134  000B48  6EF8               	movlw	high(__Lsmallconst)
  1135  000B4A  0E06               	movwf	tblptrh
  1136  000B4C  6EF7               movlb 0
  1137  000B4E  0100               goto _main	;jump to C main() function
  1138  000B50  EF74  F004         psect	cstackCOMRAM,class=COMRAM,space=1,noexec
  1139                           global __pcstackCOMRAM
  1140                           __pcstackCOMRAM:
  1141  000001                     ?_lcd_clear:	; 1 bytes @ 0x0
  1142  000001                     ?_lcd_goto:	; 1 bytes @ 0x0
  1143  000001                     ?_lcd_init:	; 1 bytes @ 0x0
  1144  000001                     ?_config:	; 1 bytes @ 0x0
  1145  000001                     ?_abrirPorta:	; 1 bytes @ 0x0
  1146  000001                     ?_trocarSenha:	; 1 bytes @ 0x0
  1147  000001                     ?_alarme:	; 1 bytes @ 0x0
  1148  000001                     ?_desligAlarme:	; 1 bytes @ 0x0
  1149  000001                     ?_main:	; 1 bytes @ 0x0
  1150  000001                     ?_tmr:	; 1 bytes @ 0x0
  1151  000001                     ?_lcd_write:	; 1 bytes @ 0x0
  1152  000001                     ?i2_lcd_write:	; 1 bytes @ 0x0
  1153  000001                     ??i2_lcd_write:	; 1 bytes @ 0x0
  1154  000001                     ?i2_lcd_clear:	; 1 bytes @ 0x0
  1155  000001                     	global	i2lcd_write@c
  1156                           i2lcd_write@c:	; 1 bytes @ 0x0
  1157  000001                     	ds   1
  1158  000001                     ??_lcd_goto:	; 1 bytes @ 0x1
  1159  000002                     ??i2_lcd_clear:	; 1 bytes @ 0x1
  1160  000002                     ?i2_lcd_puts:	; 1 bytes @ 0x1
  1161  000002                     	global	lcd_goto@pos
  1162                           lcd_goto@pos:	; 1 bytes @ 0x1
  1163  000002                     	global	i2lcd_puts@s
  1164                           i2lcd_puts@s:	; 2 bytes @ 0x1
  1165  000002                     	ds   2
  1166  000002                     ??_abrirPorta:	; 1 bytes @ 0x3
  1167  000004                     ??_trocarSenha:	; 1 bytes @ 0x3
  1168  000004                     ??_alarme:	; 1 bytes @ 0x3
  1169  000004                     ??_desligAlarme:	; 1 bytes @ 0x3
  1170  000004                     ??i2_lcd_puts:	; 1 bytes @ 0x3
  1171  000004                     	ds   2
  1172  000004                     ??_tmr:	; 1 bytes @ 0x5
  1173  000006                     	ds   4
  1174  000006                     ??_config:	; 1 bytes @ 0x9
  1175  00000A                     ??_lcd_write:	; 1 bytes @ 0x9
  1176  00000A                     	global	lcd_write@c
  1177                           lcd_write@c:	; 1 bytes @ 0x9
  1178  00000A                     	ds   1
  1179  00000A                     ??_lcd_clear:	; 1 bytes @ 0xA
  1180  00000B                     ?_lcd_puts:	; 1 bytes @ 0xA
  1181  00000B                     	global	lcd_puts@s
  1182                           lcd_puts@s:	; 2 bytes @ 0xA
  1183  00000B                     	ds   1
  1184  00000B                     ??_lcd_init:	; 1 bytes @ 0xB
  1185  00000C                     	ds   1
  1186  00000C                     ??_lcd_puts:	; 1 bytes @ 0xC
  1187  00000D                     	global	lcd_init@init_value
  1188                           lcd_init@init_value:	; 1 bytes @ 0xC
  1189  00000D                     	ds   1
  1190  00000D                     ??_main:	; 1 bytes @ 0xD
  1191  00000E                     	ds   1
  1192  00000E                     ;!
  1193                           ;!Data Sizes:
  1194                           ;!    Strings     248
  1195                           ;!    Constant    0
  1196                           ;!    Data        0
  1197                           ;!    BSS         4
  1198                           ;!    Persistent  0
  1199                           ;!    Stack       0
  1200                           ;!
  1201                           ;!Auto Spaces:
  1202                           ;!    Space          Size  Autos    Used
  1203                           ;!    COMRAM          126     14      18
  1204                           ;!    BANK0           128      0       0
  1205                           ;!    BANK1           256      0       0
  1206                           ;!    BANK2           256      0       0
  1207                           ;!    BANK3           256      0       0
  1208                           ;!    BANK4           256      0       0
  1209                           ;!    BANK5           256      0       0
  1210                           
  1211                           ;!
  1212                           ;!Pointer List with Targets:
  1213                           ;!
  1214                           ;!    lcd_puts@s	PTR const unsigned char  size(2) Largest target is 28
  1215                           ;!		 -> STR_17(CODE[19]), STR_16(CODE[18]), STR_15(CODE[17]), STR_14(CODE[17]), 
  1216                           ;!		 -> STR_13(CODE[23]), STR_12(CODE[11]), STR_11(CODE[14]), STR_10(CODE[13]), 
  1217                           ;!		 -> STR_9(CODE[28]), STR_8(CODE[18]), STR_7(CODE[19]), STR_6(CODE[14]), 
  1218                           ;!		 -> STR_5(CODE[13]), STR_4(CODE[15]), STR_3(CODE[23]), STR_2(CODE[18]), 
  1219                           ;!		 -> STR_1(CODE[13]), 
  1220                           ;!
  1221                           
  1222                           
  1223                           ;!
  1224                           ;!Critical Paths under _main in COMRAM
  1225                           ;!
  1226                           ;!    _main->_lcd_init
  1227                           ;!    _lcd_puts->_lcd_write
  1228                           ;!    _lcd_init->_lcd_clear
  1229                           ;!    _lcd_clear->_lcd_write
  1230                           ;!
  1231                           ;!Critical Paths under _tmr in COMRAM
  1232                           ;!
  1233                           ;!    _tmr->_desligAlarme
  1234                           ;!    _tmr->_trocarSenha
  1235                           ;!    _trocarSenha->i2_lcd_puts
  1236                           ;!    _desligAlarme->i2_lcd_puts
  1237                           ;!    _alarme->i2_lcd_puts
  1238                           ;!    _lcd_goto->i2_lcd_write
  1239                           ;!    _abrirPorta->i2_lcd_puts
  1240                           ;!    i2_lcd_puts->i2_lcd_write
  1241                           ;!    i2_lcd_clear->i2_lcd_write
  1242                           ;!
  1243                           ;!Critical Paths under _main in BANK0
  1244                           ;!
  1245                           ;!    None.
  1246                           ;!
  1247                           ;!Critical Paths under _tmr in BANK0
  1248                           ;!
  1249                           ;!    None.
  1250                           ;!
  1251                           ;!Critical Paths under _main in BANK1
  1252                           ;!
  1253                           ;!    None.
  1254                           ;!
  1255                           ;!Critical Paths under _tmr in BANK1
  1256                           ;!
  1257                           ;!    None.
  1258                           ;!
  1259                           ;!Critical Paths under _main in BANK2
  1260                           ;!
  1261                           ;!    None.
  1262                           ;!
  1263                           ;!Critical Paths under _tmr in BANK2
  1264                           ;!
  1265                           ;!    None.
  1266                           ;!
  1267                           ;!Critical Paths under _main in BANK3
  1268                           ;!
  1269                           ;!    None.
  1270                           ;!
  1271                           ;!Critical Paths under _tmr in BANK3
  1272                           ;!
  1273                           ;!    None.
  1274                           ;!
  1275                           ;!Critical Paths under _main in BANK4
  1276                           ;!
  1277                           ;!    None.
  1278                           ;!
  1279                           ;!Critical Paths under _tmr in BANK4
  1280                           ;!
  1281                           ;!    None.
  1282                           ;!
  1283                           ;!Critical Paths under _main in BANK5
  1284                           ;!
  1285                           ;!    None.
  1286                           ;!
  1287                           ;!Critical Paths under _tmr in BANK5
  1288                           ;!
  1289                           ;!    None.
  1290                           
  1291 ;;
  1292 ;;Main: autosize = 0, tempsize = 1, incstack = 0, save=0
  1293 ;;
  1294                           
  1295                           ;!
  1296                           ;!Call Graph Tables:
  1297                           ;!
  1298                           ;! ---------------------------------------------------------------------------------
  1299                           ;! (Depth) Function   	        Calls       Base Space   Used Autos Params    Refs
  1300                           ;! ---------------------------------------------------------------------------------
  1301                           ;! (0) _main                                                 1     1      0    1100
  1302                           ;!                                             13 COMRAM     1     1      0
  1303                           ;!                             _config
  1304                           ;!                          _lcd_clear
  1305                           ;!                           _lcd_init
  1306                           ;!                           _lcd_puts
  1307                           ;! ---------------------------------------------------------------------------------
  1308                           ;! (1) _lcd_puts                                             2     0      2    1040
  1309                           ;!                                             10 COMRAM     2     0      2
  1310                           ;!                          _lcd_write
  1311                           ;! ---------------------------------------------------------------------------------
  1312                           ;! (1) _lcd_init                                             2     2      0      45
  1313                           ;!                                             11 COMRAM     2     2      0
  1314                           ;!                          _lcd_clear
  1315                           ;!                          _lcd_write
  1316                           ;! ---------------------------------------------------------------------------------
  1317                           ;! (2) _lcd_clear                                            1     1      0      15
  1318                           ;!                                             10 COMRAM     1     1      0
  1319                           ;!                          _lcd_write
  1320                           ;! ---------------------------------------------------------------------------------
  1321                           ;! (2) _lcd_write                                            1     1      0      15
  1322                           ;!                                              9 COMRAM     1     1      0
  1323                           ;! ---------------------------------------------------------------------------------
  1324                           ;! (1) _config                                               0     0      0       0
  1325                           ;! ---------------------------------------------------------------------------------
  1326                           ;! Estimated maximum stack depth 2
  1327                           ;! ---------------------------------------------------------------------------------
  1328                           ;! (Depth) Function   	        Calls       Base Space   Used Autos Params    Refs
  1329                           ;! ---------------------------------------------------------------------------------
  1330                           ;! (4) _tmr                                                  4     4      0    1692
  1331                           ;!                                              5 COMRAM     4     4      0
  1332                           ;!                         _abrirPorta
  1333                           ;!                             _alarme
  1334                           ;!                       _desligAlarme
  1335                           ;!                        _trocarSenha
  1336                           ;! ---------------------------------------------------------------------------------
  1337                           ;! (5) _trocarSenha                                          2     2      0     445
  1338                           ;!                                              3 COMRAM     2     2      0
  1339                           ;!                           _lcd_goto
  1340                           ;!                        i2_lcd_clear
  1341                           ;!                         i2_lcd_puts
  1342                           ;! ---------------------------------------------------------------------------------
  1343                           ;! (5) _desligAlarme                                         2     2      0     401
  1344                           ;!                                              3 COMRAM     2     2      0
  1345                           ;!                        i2_lcd_clear
  1346                           ;!                         i2_lcd_puts
  1347                           ;! ---------------------------------------------------------------------------------
  1348                           ;! (5) _alarme                                               0     0      0     445
  1349                           ;!                           _lcd_goto
  1350                           ;!                        i2_lcd_clear
  1351                           ;!                         i2_lcd_puts
  1352                           ;! ---------------------------------------------------------------------------------
  1353                           ;! (6) _lcd_goto                                             1     1      0      44
  1354                           ;!                                              1 COMRAM     1     1      0
  1355                           ;!                        i2_lcd_write
  1356                           ;! ---------------------------------------------------------------------------------
  1357                           ;! (5) _abrirPorta                                           0     0      0     401
  1358                           ;!                        i2_lcd_clear
  1359                           ;!                         i2_lcd_puts
  1360                           ;! ---------------------------------------------------------------------------------
  1361                           ;! (6) i2_lcd_puts                                           2     0      2     379
  1362                           ;!                                              1 COMRAM     2     0      2
  1363                           ;!                        i2_lcd_write
  1364                           ;! ---------------------------------------------------------------------------------
  1365                           ;! (6) i2_lcd_clear                                          1     1      0      22
  1366                           ;!                                              1 COMRAM     1     1      0
  1367                           ;!                        i2_lcd_write
  1368                           ;! ---------------------------------------------------------------------------------
  1369                           ;! (7) i2_lcd_write                                          1     1      0      22
  1370                           ;!                                              0 COMRAM     1     1      0
  1371                           ;! ---------------------------------------------------------------------------------
  1372                           ;! Estimated maximum stack depth 7
  1373                           ;! ---------------------------------------------------------------------------------
  1374                           ;!
  1375                           ;! Call Graph Graphs:
  1376                           ;!
  1377                           ;! _main (ROOT)
  1378                           ;!   _config
  1379                           ;!   _lcd_clear
  1380                           ;!     _lcd_write
  1381                           ;!   _lcd_init
  1382                           ;!     _lcd_clear
  1383                           ;!       _lcd_write
  1384                           ;!     _lcd_write
  1385                           ;!   _lcd_puts
  1386                           ;!     _lcd_write
  1387                           ;!
  1388                           ;! _tmr (ROOT)
  1389                           ;!   _abrirPorta
  1390                           ;!     i2_lcd_clear
  1391                           ;!       i2_lcd_write
  1392                           ;!     i2_lcd_puts
  1393                           ;!       i2_lcd_write
  1394                           ;!   _alarme
  1395                           ;!     _lcd_goto
  1396                           ;!       i2_lcd_write
  1397                           ;!     i2_lcd_clear
  1398                           ;!       i2_lcd_write
  1399                           ;!     i2_lcd_puts
  1400                           ;!       i2_lcd_write
  1401                           ;!   _desligAlarme
  1402                           ;!     i2_lcd_clear
  1403                           ;!       i2_lcd_write
  1404                           ;!     i2_lcd_puts
  1405                           ;!       i2_lcd_write
  1406                           ;!   _trocarSenha
  1407                           ;!     _lcd_goto
  1408                           ;!       i2_lcd_write
  1409                           ;!     i2_lcd_clear
  1410                           ;!       i2_lcd_write
  1411                           ;!     i2_lcd_puts
  1412                           ;!       i2_lcd_write
  1413                           ;!
  1414                           
  1415                           ;! Address spaces:
  1416                           
  1417                           ;!Name               Size   Autos  Total    Cost      Usage
  1418                           ;!BIGRAM             5FF      0       0      17        0.0%
  1419                           ;!EEDATA             100      0       0       0        0.0%
  1420                           ;!BITBANK5           100      0       0      16        0.0%
  1421                           ;!BANK5              100      0       0      14        0.0%
  1422                           ;!BITBANK4           100      0       0      12        0.0%
  1423                           ;!BANK4              100      0       0      13        0.0%
  1424                           ;!BITBANK3           100      0       0      10        0.0%
  1425                           ;!BANK3              100      0       0      11        0.0%
  1426                           ;!BITBANK2           100      0       0       8        0.0%
  1427                           ;!BANK2              100      0       0       9        0.0%
  1428                           ;!BITBANK1           100      0       0       6        0.0%
  1429                           ;!BANK1              100      0       0       7        0.0%
  1430                           ;!BITBANK0            80      0       0       4        0.0%
  1431                           ;!BANK0               80      0       0       5        0.0%
  1432                           ;!BITCOMRAM           7E      0       0       0        0.0%
  1433                           ;!COMRAM              7E      E      12       1       14.3%
  1434                           ;!BITSFR               0      0       0     200        0.0%
  1435                           ;!SFR                  0      0       0     200        0.0%
  1436                           ;!STACK                0      0       0       2        0.0%
  1437                           ;!NULL                 0      0       0       0        0.0%
  1438                           ;!ABS                  0      0      12      15        0.0%
  1439                           ;!DATA                 0      0      12       3        0.0%
  1440                           ;!CODE                 0      0       0       0        0.0%
  1441                           
  1442                           	global	_main
  1443                           
  1444 ;; *************** function _main *****************
  1445 ;; Defined at:
  1446 ;;		line 105 in file "Fechadura.c"
  1447 ;; Parameters:    Size  Location     Type
  1448 ;;		None
  1449 ;; Auto vars:     Size  Location     Type
  1450 ;;		None
  1451 ;; Return value:  Size  Location     Type
  1452 ;;                  1    wreg      void 
  1453 ;; Registers used:
  1454 ;;		wreg, status,2, status,0, tblptrl, tblptrh, tblptru, cstack
  1455 ;; Tracked objects:
  1456 ;;		On entry : 0/0
  1457 ;;		On exit  : 0/0
  1458 ;;		Unchanged: 0/0
  1459 ;; Data sizes:     COMRAM   BANK0   BANK1   BANK2   BANK3   BANK4   BANK5
  1460 ;;      Params:         0       0       0       0       0       0       0
  1461 ;;      Locals:         0       0       0       0       0       0       0
  1462 ;;      Temps:          1       0       0       0       0       0       0
  1463 ;;      Totals:         1       0       0       0       0       0       0
  1464 ;;Total ram usage:        1 bytes
  1465 ;; Hardware stack levels required when called:    7
  1466 ;; This function calls:
  1467 ;;		_config
  1468 ;;		_lcd_clear
  1469 ;;		_lcd_init
  1470 ;;		_lcd_puts
  1471 ;; This function is called by:
  1472 ;;		Startup code after reset
  1473 ;; This function uses a non-reentrant model
  1474 ;;
  1475                           psect	text0,class=CODE,space=0,reloc=2,group=0
  1476                           	file	"Fechadura.c"
  1477                           	line	105
  1478                           global __ptext0
  1479                           __ptext0:
  1480  0008E8                     psect	text0
  1481                           	file	"Fechadura.c"
  1482                           	line	105
  1483                           	global	__size_of_main
  1484                           	__size_of_main	equ	__end_of_main-_main
  1485  0000                     	
  1486                           _main:
  1487  0008E8                     ;incstack = 0
  1488                           	opt	stack 24
  1489                           	line	106
  1490                           	
  1491                           l1201:
  1492  0008E8                     ;Fechadura.c: 106:     config();
  1493                           	call	_config	;wreg free
  1494  0008E8  ECF8  F004         	line	107
  1495                           ;Fechadura.c: 107:     lcd_init();
  1496                           	call	_lcd_init	;wreg free
  1497  0008EC  ECC5  F004         	line	108
  1498                           	
  1499                           l1203:
  1500  0008F0                     ;Fechadura.c: 108:     PORTD = 0;
  1501                           	movlw	low(0)
  1502  0008F0  0E00               	movwf	((c:3971)),c	;volatile
  1503  0008F2  6E83               	line	109
  1504                           	
  1505                           l1205:
  1506  0008F4                     ;Fechadura.c: 109:     PORTB = 0;
  1507                           	movlw	low(0)
  1508  0008F4  0E00               	movwf	((c:3969)),c	;volatile
  1509  0008F6  6E81               	line	110
  1510                           	
  1511                           l1207:
  1512  0008F8                     ;Fechadura.c: 110:     PORTE = 0;
  1513                           	movlw	low(0)
  1514  0008F8  0E00               	movwf	((c:3972)),c	;volatile
  1515  0008FA  6E84               	line	111
  1516                           	
  1517                           l1209:
  1518  0008FC                     ;Fechadura.c: 111:     PORTBbits.RB7 =1;
  1519                           	bsf	((c:3969)),c,7	;volatile
  1520  0008FC  8E81               	line	112
  1521                           	
  1522                           l1211:
  1523  0008FE                     ;Fechadura.c: 112:     lcd_clear();
  1524                           	call	_lcd_clear	;wreg free
  1525  0008FE  ECAA  F005         	line	113
  1526                           	
  1527                           l1213:
  1528  000902                     ;Fechadura.c: 113:     lcd_puts("Digite sua senha:");
  1529                           		movlw	low(STR_16)
  1530  000902  0E71               	movwf	((c:lcd_puts@s)),c
  1531  000904  6E0B               	movlw	high(STR_16)
  1532  000906  0E06               	movwf	((c:lcd_puts@s+1)),c
  1533  000908  6E0C               
  1534                           	call	_lcd_puts	;wreg free
  1535  00090A  EC19  F005         	goto	l1215
  1536  00090E  EF89  F004         	line	115
  1537                           ;Fechadura.c: 115:     while(1){
  1538                           	
  1539                           l97:
  1540  000912                     	line	117
  1541                           	
  1542                           l1215:
  1543  000912                     ;Fechadura.c: 117:         if(!PORTCbits.RC0){
  1544                           	btfsc	((c:3970)),c,0	;volatile
  1545  000912  B082               	goto	u231
  1546  000914  EF8E  F004         	goto	u230
  1547  000918  EF90  F004         u231:
  1548  00091C                     	goto	l1215
  1549  00091C  EF89  F004         u230:
  1550  000920                     	line	118
  1551                           	
  1552                           l1217:
  1553  000920                     ;Fechadura.c: 118:             _delay((unsigned long)((5)*(4000000/4000.0)));
  1554                           	opt asmopt_push
  1555                           opt asmopt_off
  1556                           movlw	7
  1557  000920  0E07               movwf	(??_main+0+0)&0ffh,c,f
  1558  000922  6E0E               	movlw	125
  1559  000924  0E7D               u317:
  1560  000926                     decfsz	wreg,f
  1561  000926  2EE8               	bra	u317
  1562  000928  D7FE               	decfsz	(??_main+0+0)&0ffh,c,f
  1563  00092A  2E0E               	bra	u317
  1564  00092C  D7FC               	nop
  1565  00092E  F000               opt asmopt_pop
  1566                           
  1567                           	line	119
  1568                           	
  1569                           l1219:
  1570  000930                     ;Fechadura.c: 119:             if(!PORTCbits.RC0){
  1571                           	btfsc	((c:3970)),c,0	;volatile
  1572  000930  B082               	goto	u241
  1573  000932  EF9D  F004         	goto	u240
  1574  000936  EF9F  F004         u241:
  1575  00093A                     	goto	l1215
  1576  00093A  EF89  F004         u240:
  1577  00093E                     	goto	l100
  1578  00093E  EFA3  F004         	line	120
  1579                           	
  1580                           l1221:
  1581  000942                     ;Fechadura.c: 120:                 while(!PORTCbits.RC0){}
  1582                           	goto	l100
  1583  000942  EFA3  F004         	
  1584                           l101:
  1585  000946                     	
  1586                           l100:
  1587  000946                     	btfss	((c:3970)),c,0	;volatile
  1588  000946  A082               	goto	u251
  1589  000948  EFA8  F004         	goto	u250
  1590  00094C  EFAA  F004         u251:
  1591  000950                     	goto	l100
  1592  000950  EFA3  F004         u250:
  1593  000954                     	goto	l1223
  1594  000954  EFAC  F004         	
  1595                           l102:
  1596  000958                     	line	121
  1597                           	
  1598                           l1223:
  1599  000958                     ;Fechadura.c: 121:                 lcd_clear();
  1600                           	call	_lcd_clear	;wreg free
  1601  000958  ECAA  F005         	line	122
  1602                           	
  1603                           l1225:
  1604  00095C                     ;Fechadura.c: 122:                 lcd_puts("Digite sua senha: ");
  1605                           		movlw	low(STR_17)
  1606  00095C  0E4B               	movwf	((c:lcd_puts@s)),c
  1607  00095E  6E0B               	movlw	high(STR_17)
  1608  000960  0E06               	movwf	((c:lcd_puts@s+1)),c
  1609  000962  6E0C               
  1610                           	call	_lcd_puts	;wreg free
  1611  000964  EC19  F005         	line	123
  1612                           	
  1613                           l1227:
  1614  000968                     ;Fechadura.c: 123:                 PORTBbits.RB7 = 1;
  1615                           	bsf	((c:3969)),c,7	;volatile
  1616  000968  8E81               	line	124
  1617                           	
  1618                           l1229:
  1619  00096A                     ;Fechadura.c: 124:                 PORTBbits.RB0 = 0;
  1620                           	bcf	((c:3969)),c,0	;volatile
  1621  00096A  9081               	line	125
  1622                           	
  1623                           l1231:
  1624  00096C                     ;Fechadura.c: 125:                 PORTBbits.RB5 =0;
  1625                           	bcf	((c:3969)),c,5	;volatile
  1626  00096C  9A81               	line	126
  1627                           	
  1628                           l1233:
  1629  00096E                     ;Fechadura.c: 126:                 flag1 = 0;
  1630                           	movlw	high(0)
  1631  00096E  0E00               	movwf	((c:_flag1+1)),c
  1632  000970  6E10               	movlw	low(0)
  1633  000972  0E00               	movwf	((c:_flag1)),c
  1634  000974  6E0F               	goto	l1215
  1635  000976  EF89  F004         	line	127
  1636                           ;Fechadura.c: 127:             }
  1637                           	
  1638                           l99:
  1639  00097A                     	goto	l1215
  1640  00097A  EF89  F004         	line	128
  1641                           ;Fechadura.c: 128:         }
  1642                           	
  1643                           l98:
  1644  00097E                     	goto	l1215
  1645  00097E  EF89  F004         	line	129
  1646                           ;Fechadura.c: 129:     }
  1647                           	
  1648                           l103:
  1649  000982                     	goto	l1215
  1650  000982  EF89  F004         	
  1651                           l104:
  1652  000986                     	line	130
  1653                           	
  1654                           l105:
  1655  000986                     	global	start
  1656                           	goto	start
  1657  000986  EF07  F000         	opt stack 0
  1658                           GLOBAL	__end_of_main
  1659                           	__end_of_main:
  1660  00098A                     	signat	_main,89
  1661                           	global	_lcd_puts
  1662                           
  1663 ;; *************** function _lcd_puts *****************
  1664 ;; Defined at:
  1665 ;;		line 62 in file "lcd.c"
  1666 ;; Parameters:    Size  Location     Type
  1667 ;;  s               2   10[COMRAM] PTR const unsigned char 
  1668 ;;		 -> STR_17(19), STR_16(18), STR_15(17), STR_14(17), 
  1669 ;;		 -> STR_13(23), STR_12(11), STR_11(14), STR_10(13), 
  1670 ;;		 -> STR_9(28), STR_8(18), STR_7(19), STR_6(14), 
  1671 ;;		 -> STR_5(13), STR_4(15), STR_3(23), STR_2(18), 
  1672 ;;		 -> STR_1(13), 
  1673 ;; Auto vars:     Size  Location     Type
  1674 ;;		None
  1675 ;; Return value:  Size  Location     Type
  1676 ;;                  1    wreg      void 
  1677 ;; Registers used:
  1678 ;;		wreg, status,2, status,0, tblptrl, tblptrh, tblptru, cstack
  1679 ;; Tracked objects:
  1680 ;;		On entry : 0/0
  1681 ;;		On exit  : 0/0
  1682 ;;		Unchanged: 0/0
  1683 ;; Data sizes:     COMRAM   BANK0   BANK1   BANK2   BANK3   BANK4   BANK5
  1684 ;;      Params:         2       0       0       0       0       0       0
  1685 ;;      Locals:         0       0       0       0       0       0       0
  1686 ;;      Temps:          0       0       0       0       0       0       0
  1687 ;;      Totals:         2       0       0       0       0       0       0
  1688 ;;Total ram usage:        2 bytes
  1689 ;; Hardware stack levels used:    1
  1690 ;; Hardware stack levels required when called:    5
  1691 ;; This function calls:
  1692 ;;		_lcd_write
  1693 ;; This function is called by:
  1694 ;;		_main
  1695 ;;		_senhaAlterada
  1696 ;; This function uses a non-reentrant model
  1697 ;;
  1698                           psect	text1,class=CODE,space=0,reloc=2,group=0
  1699                           	file	"lcd.c"
  1700                           	line	62
  1701                           global __ptext1
  1702                           __ptext1:
  1703  000A32                     psect	text1
  1704                           	file	"lcd.c"
  1705                           	line	62
  1706                           	global	__size_of_lcd_puts
  1707                           	__size_of_lcd_puts	equ	__end_of_lcd_puts-_lcd_puts
  1708  0000                     	
  1709                           _lcd_puts:
  1710  000A32                     ;incstack = 0
  1711                           	opt	stack 25
  1712                           	line	64
  1713                           	
  1714                           l1107:
  1715  000A32                     ;lcd.c: 62: lcd_puts(const char * s);lcd.c: 63: {;lcd.c: 64:  LE0 = 1;
  1716                           	bsf	c:(31848/8),(31848)&7	;volatile
  1717  000A32  808D               	line	65
  1718                           ;lcd.c: 65:  while(*s)
  1719                           	goto	l1113
  1720  000A34  EF28  F005         	
  1721                           l136:
  1722  000A38                     	line	66
  1723                           	
  1724                           l1109:
  1725  000A38                     ;lcd.c: 66:   lcd_write(*s++);
  1726                           	movff	(c:lcd_puts@s),tblptrl
  1727  000A38  C00B  FFF6         	movff	(c:lcd_puts@s+1),tblptrh
  1728  000A3C  C00C  FFF7         	if	0	;tblptru may be non-zero
  1729  000A40                     	clrf	tblptru
  1731  000A40                     	if	0	;tblptru may be non-zero
  1732  000A40                     	global __mediumconst
  1733                           movlw	low highword(__mediumconst)
  1736  000A40                     	tblrd	*
  1737  000A40  0008               	
  1738                           	movf	tablat,w
  1739  000A42  50F5               	
  1740                           	call	_lcd_write
  1741  000A44  ECC2  F005         	
  1742                           l1111:
  1743  000A48                     	infsnz	((c:lcd_puts@s)),c
  1744  000A48  4A0B               	incf	((c:lcd_puts@s+1)),c
  1745  000A4A  2A0C               	goto	l1113
  1746  000A4C  EF28  F005         	
  1747                           l135:
  1748  000A50                     	line	65
  1749                           	
  1750                           l1113:
  1751  000A50                     ;lcd.c: 65:  while(*s)
  1752                           	movff	(c:lcd_puts@s),tblptrl
  1753  000A50  C00B  FFF6         	movff	(c:lcd_puts@s+1),tblptrh
  1754  000A54  C00C  FFF7         	if	0	;tblptru may be non-zero
  1755  000A58                     	clrf	tblptru
  1757  000A58                     	if	0	;tblptru may be non-zero
  1758  000A58                     	global __mediumconst
  1759                           movlw	low highword(__mediumconst)
  1762  000A58                     	tblrd	*
  1763  000A58  0008               	
  1764                           	movf	tablat,w
  1765  000A5A  50F5               	iorlw	0
  1766  000A5C  0900               	btfss	status,2
  1767  000A5E  A4D8               	goto	u171
  1768  000A60  EF34  F005         	goto	u170
  1769  000A64  EF36  F005         u171:
  1770  000A68                     	goto	l1109
  1771  000A68  EF1C  F005         u170:
  1772  000A6C                     	goto	l138
  1773  000A6C  EF38  F005         	
  1774                           l137:
  1775  000A70                     	line	67
  1776                           	
  1777                           l138:
  1778  000A70                     	return	;funcret
  1779  000A70  0012               	opt stack 0
  1780                           GLOBAL	__end_of_lcd_puts
  1781                           	__end_of_lcd_puts:
  1782  000A72                     	signat	_lcd_puts,4217
  1783                           	global	_lcd_init
  1784                           
  1785 ;; *************** function _lcd_init *****************
  1786 ;; Defined at:
  1787 ;;		line 92 in file "lcd.c"
  1788 ;; Parameters:    Size  Location     Type
  1789 ;;		None
  1790 ;; Auto vars:     Size  Location     Type
  1791 ;;  init_value      1   12[COMRAM] unsigned char 
  1792 ;; Return value:  Size  Location     Type
  1793 ;;                  1    wreg      void 
  1794 ;; Registers used:
  1795 ;;		wreg, status,2, cstack
  1796 ;; Tracked objects:
  1797 ;;		On entry : 0/0
  1798 ;;		On exit  : 0/0
  1799 ;;		Unchanged: 0/0
  1800 ;; Data sizes:     COMRAM   BANK0   BANK1   BANK2   BANK3   BANK4   BANK5
  1801 ;;      Params:         0       0       0       0       0       0       0
  1802 ;;      Locals:         1       0       0       0       0       0       0
  1803 ;;      Temps:          1       0       0       0       0       0       0
  1804 ;;      Totals:         2       0       0       0       0       0       0
  1805 ;;Total ram usage:        2 bytes
  1806 ;; Hardware stack levels used:    1
  1807 ;; Hardware stack levels required when called:    6
  1808 ;; This function calls:
  1809 ;;		_lcd_clear
  1810 ;;		_lcd_write
  1811 ;; This function is called by:
  1812 ;;		_main
  1813 ;; This function uses a non-reentrant model
  1814 ;;
  1815                           psect	text2,class=CODE,space=0,reloc=2,group=0
  1816                           	line	92
  1817                           global __ptext2
  1818                           __ptext2:
  1819  00098A                     psect	text2
  1820                           	file	"lcd.c"
  1821                           	line	92
  1822                           	global	__size_of_lcd_init
  1823                           	__size_of_lcd_init	equ	__end_of_lcd_init-_lcd_init
  1824  0000                     	
  1825                           _lcd_init:
  1826  00098A                     ;incstack = 0
  1827                           	opt	stack 24
  1828                           	line	97
  1829                           	
  1830                           l961:
  1831  00098A                     ;lcd.c: 94:  char init_value;;lcd.c: 97:  init_value = 0x03;
  1832                           	movlw	low(03h)
  1833  00098A  0E03               	movwf	((c:lcd_init@init_value)),c
  1834  00098C  6E0D               	line	98
  1835                           	
  1836                           l963:
  1837  00098E                     ;lcd.c: 98:  LE0 = 0;
  1838                           	bcf	c:(31848/8),(31848)&7	;volatile
  1839  00098E  908D               	line	99
  1840                           	
  1841                           l965:
  1842  000990                     ;lcd.c: 99:  LE1 = 0;
  1843                           	bcf	c:(31849/8),(31849)&7	;volatile
  1844  000990  928D               	line	102
  1845                           	
  1846                           l967:
  1847  000992                     ;lcd.c: 102:  _delay((unsigned long)((15)*(4000000/4000.0)));
  1848                           	opt asmopt_push
  1849                           opt asmopt_off
  1850                           movlw	20
  1851  000992  0E14               movwf	(??_lcd_init+0+0)&0ffh,c,f
  1852  000994  6E0C               	movlw	122
  1853  000996  0E7A               u327:
  1854  000998                     decfsz	wreg,f
  1855  000998  2EE8               	bra	u327
  1856  00099A  D7FE               	decfsz	(??_lcd_init+0+0)&0ffh,c,f
  1857  00099C  2E0C               	bra	u327
  1858  00099E  D7FC               opt asmopt_pop
  1859                           
  1860                           	line	103
  1861                           	
  1862                           l969:
  1863  0009A0                     ;lcd.c: 103:  PORTD = init_value;
  1864                           	movff	(c:lcd_init@init_value),(c:3971)	;volatile
  1865  0009A0  C00D  FF83         	line	104
  1866                           	
  1867                           l971:
  1868  0009A4                     ;lcd.c: 104:  ((LE1 = 1),(LE1=0));
  1869                           	bsf	c:(31849/8),(31849)&7	;volatile
  1870  0009A4  828D               	
  1871                           l973:
  1872  0009A6                     	bcf	c:(31849/8),(31849)&7	;volatile
  1873  0009A6  928D               	line	105
  1874                           	
  1875                           l975:
  1876  0009A8                     ;lcd.c: 105:  _delay((unsigned long)((5)*(4000000/4000.0)));
  1877                           	opt asmopt_push
  1878                           opt asmopt_off
  1879                           movlw	7
  1880  0009A8  0E07               movwf	(??_lcd_init+0+0)&0ffh,c,f
  1881  0009AA  6E0C               	movlw	125
  1882  0009AC  0E7D               u337:
  1883  0009AE                     decfsz	wreg,f
  1884  0009AE  2EE8               	bra	u337
  1885  0009B0  D7FE               	decfsz	(??_lcd_init+0+0)&0ffh,c,f
  1886  0009B2  2E0C               	bra	u337
  1887  0009B4  D7FC               	nop
  1888  0009B6  F000               opt asmopt_pop
  1889                           
  1890                           	line	106
  1891                           	
  1892                           l977:
  1893  0009B8                     ;lcd.c: 106:  ((LE1 = 1),(LE1=0));
  1894                           	bsf	c:(31849/8),(31849)&7	;volatile
  1895  0009B8  828D               	
  1896                           l979:
  1897  0009BA                     	bcf	c:(31849/8),(31849)&7	;volatile
  1898  0009BA  928D               	line	107
  1899                           	
  1900                           l981:
  1901  0009BC                     ;lcd.c: 107:  _delay((unsigned long)((200)*(4000000/4000000.0)));
  1902                           	opt asmopt_push
  1903                           opt asmopt_off
  1904                           	movlw	66
  1905  0009BC  0E42               u347:
  1906  0009BE                     decfsz	wreg,f
  1907  0009BE  2EE8               	bra	u347
  1908  0009C0  D7FE               	nop2
  1909  0009C2  D000               opt asmopt_pop
  1910                           
  1911                           	line	108
  1912                           	
  1913                           l983:
  1914  0009C4                     ;lcd.c: 108:  ((LE1 = 1),(LE1=0));
  1915                           	bsf	c:(31849/8),(31849)&7	;volatile
  1916  0009C4  828D               	
  1917                           l985:
  1918  0009C6                     	bcf	c:(31849/8),(31849)&7	;volatile
  1919  0009C6  928D               	line	109
  1920                           	
  1921                           l987:
  1922  0009C8                     ;lcd.c: 109:  _delay((unsigned long)((200)*(4000000/4000000.0)));
  1923                           	opt asmopt_push
  1924                           opt asmopt_off
  1925                           	movlw	66
  1926  0009C8  0E42               u357:
  1927  0009CA                     decfsz	wreg,f
  1928  0009CA  2EE8               	bra	u357
  1929  0009CC  D7FE               	nop2
  1930  0009CE  D000               opt asmopt_pop
  1931                           
  1932                           	line	110
  1933                           ;lcd.c: 110:  PORTD = 2;
  1934                           	movlw	low(02h)
  1935  0009D0  0E02               	movwf	((c:3971)),c	;volatile
  1936  0009D2  6E83               	line	111
  1937                           	
  1938                           l989:
  1939  0009D4                     ;lcd.c: 111:  ((LE1 = 1),(LE1=0));
  1940                           	bsf	c:(31849/8),(31849)&7	;volatile
  1941  0009D4  828D               	
  1942                           l991:
  1943  0009D6                     	bcf	c:(31849/8),(31849)&7	;volatile
  1944  0009D6  928D               	line	113
  1945                           	
  1946                           l993:
  1947  0009D8                     ;lcd.c: 113:  lcd_write(0x38);
  1948                           	movlw	(038h)&0ffh
  1949  0009D8  0E38               	
  1950                           	call	_lcd_write
  1951  0009DA  ECC2  F005         	line	114
  1952                           	
  1953                           l995:
  1954  0009DE                     ;lcd.c: 114:  lcd_write(0x06);
  1955                           	movlw	(06h)&0ffh
  1956  0009DE  0E06               	
  1957                           	call	_lcd_write
  1958  0009E0  ECC2  F005         	line	115
  1959                           	
  1960                           l997:
  1961  0009E4                     ;lcd.c: 115:  lcd_write(0x0C);
  1962                           	movlw	(0Ch)&0ffh
  1963  0009E4  0E0C               	
  1964                           	call	_lcd_write
  1965  0009E6  ECC2  F005         	line	116
  1966                           	
  1967                           l999:
  1968  0009EA                     ;lcd.c: 116:  lcd_clear();
  1969                           	call	_lcd_clear	;wreg free
  1970  0009EA  ECAA  F005         	line	118
  1971                           	
  1972                           l147:
  1973  0009EE                     	return	;funcret
  1974  0009EE  0012               	opt stack 0
  1975                           GLOBAL	__end_of_lcd_init
  1976                           	__end_of_lcd_init:
  1977  0009F0                     	signat	_lcd_init,89
  1978                           	global	_lcd_clear
  1979                           
  1980 ;; *************** function _lcd_clear *****************
  1981 ;; Defined at:
  1982 ;;		line 52 in file "lcd.c"
  1983 ;; Parameters:    Size  Location     Type
  1984 ;;		None
  1985 ;; Auto vars:     Size  Location     Type
  1986 ;;		None
  1987 ;; Return value:  Size  Location     Type
  1988 ;;                  1    wreg      void 
  1989 ;; Registers used:
  1990 ;;		wreg, status,2, cstack
  1991 ;; Tracked objects:
  1992 ;;		On entry : 0/0
  1993 ;;		On exit  : 0/0
  1994 ;;		Unchanged: 0/0
  1995 ;; Data sizes:     COMRAM   BANK0   BANK1   BANK2   BANK3   BANK4   BANK5
  1996 ;;      Params:         0       0       0       0       0       0       0
  1997 ;;      Locals:         0       0       0       0       0       0       0
  1998 ;;      Temps:          1       0       0       0       0       0       0
  1999 ;;      Totals:         1       0       0       0       0       0       0
  2000 ;;Total ram usage:        1 bytes
  2001 ;; Hardware stack levels used:    1
  2002 ;; Hardware stack levels required when called:    5
  2003 ;; This function calls:
  2004 ;;		_lcd_write
  2005 ;; This function is called by:
  2006 ;;		_main
  2007 ;;		_lcd_init
  2008 ;;		_senhaAlterada
  2009 ;; This function uses a non-reentrant model
  2010 ;;
  2011                           psect	text3,class=CODE,space=0,reloc=2,group=0
  2012                           	line	52
  2013                           global __ptext3
  2014                           __ptext3:
  2015  000B54                     psect	text3
  2016                           	file	"lcd.c"
  2017                           	line	52
  2018                           	global	__size_of_lcd_clear
  2019                           	__size_of_lcd_clear	equ	__end_of_lcd_clear-_lcd_clear
  2020  0000                     	
  2021                           _lcd_clear:
  2022  000B54                     ;incstack = 0
  2023                           	opt	stack 24
  2024                           	line	54
  2025                           	
  2026                           l839:
  2027  000B54                     ;lcd.c: 54:  LE0 = 0;
  2028                           	bcf	c:(31848/8),(31848)&7	;volatile
  2029  000B54  908D               	line	55
  2030                           	
  2031                           l841:
  2032  000B56                     ;lcd.c: 55:  lcd_write(0x01);
  2033                           	movlw	(01h)&0ffh
  2034  000B56  0E01               	
  2035                           	call	_lcd_write
  2036  000B58  ECC2  F005         	line	56
  2037                           	
  2038                           l843:
  2039  000B5C                     ;lcd.c: 56:  _delay((unsigned long)((2)*(4000000/4000.0)));
  2040                           	opt asmopt_push
  2041                           opt asmopt_off
  2042                           movlw	3
  2043  000B5C  0E03               movwf	(??_lcd_clear+0+0)&0ffh,c,f
  2044  000B5E  6E0B               	movlw	152
  2045  000B60  0E98               u367:
  2046  000B62                     decfsz	wreg,f
  2047  000B62  2EE8               	bra	u367
  2048  000B64  D7FE               	decfsz	(??_lcd_clear+0+0)&0ffh,c,f
  2049  000B66  2E0B               	bra	u367
  2050  000B68  D7FC               opt asmopt_pop
  2051                           
  2052                           	line	57
  2053                           	
  2054                           l132:
  2055  000B6A                     	return	;funcret
  2056  000B6A  0012               	opt stack 0
  2057                           GLOBAL	__end_of_lcd_clear
  2058                           	__end_of_lcd_clear:
  2059  000B6C                     	signat	_lcd_clear,89
  2060                           	global	_lcd_write
  2061                           
  2062 ;; *************** function _lcd_write *****************
  2063 ;; Defined at:
  2064 ;;		line 38 in file "lcd.c"
  2065 ;; Parameters:    Size  Location     Type
  2066 ;;  c               1    wreg     unsigned char 
  2067 ;; Auto vars:     Size  Location     Type
  2068 ;;  c               1    9[COMRAM] unsigned char 
  2069 ;; Return value:  Size  Location     Type
  2070 ;;                  1    wreg      void 
  2071 ;; Registers used:
  2072 ;;		wreg, status,2, cstack
  2073 ;; Tracked objects:
  2074 ;;		On entry : 0/0
  2075 ;;		On exit  : 0/0
  2076 ;;		Unchanged: 0/0
  2077 ;; Data sizes:     COMRAM   BANK0   BANK1   BANK2   BANK3   BANK4   BANK5
  2078 ;;      Params:         0       0       0       0       0       0       0
  2079 ;;      Locals:         1       0       0       0       0       0       0
  2080 ;;      Temps:          0       0       0       0       0       0       0
  2081 ;;      Totals:         1       0       0       0       0       0       0
  2082 ;;Total ram usage:        1 bytes
  2083 ;; Hardware stack levels used:    1
  2084 ;; Hardware stack levels required when called:    4
  2085 ;; This function calls:
  2086 ;;		Nothing
  2087 ;; This function is called by:
  2088 ;;		_lcd_clear
  2089 ;;		_lcd_puts
  2090 ;;		_lcd_init
  2091 ;;		_lcd_putch
  2092 ;; This function uses a non-reentrant model
  2093 ;;
  2094                           psect	text4,class=CODE,space=0,reloc=2,group=0
  2095                           	line	38
  2096                           global __ptext4
  2097                           __ptext4:
  2098  000B84                     psect	text4
  2099                           	file	"lcd.c"
  2100                           	line	38
  2101                           	global	__size_of_lcd_write
  2102                           	__size_of_lcd_write	equ	__end_of_lcd_write-_lcd_write
  2103  0000                     	
  2104                           _lcd_write:
  2105  000B84                     ;incstack = 0
  2106                           	opt	stack 25
  2107                           ;lcd_write@c stored from wreg
  2108                           	movwf	((c:lcd_write@c)),c
  2109  000B84  6E0A               	line	40
  2110                           	
  2111                           l823:
  2112  000B86                     ;lcd.c: 38: lcd_write(unsigned char c);lcd.c: 39: {;lcd.c: 40:  _delay((unsigned long)((
                                 1)*(4000000/4000.0)));
  2113                           	opt asmopt_push
  2114                           opt asmopt_off
  2115                           	movlw	200
  2116  000B86  0EC8               u377:
  2117  000B88                     	nop2
  2118  000B88  D000               decfsz	wreg,f
  2119  000B8A  2EE8               	bra	u377
  2120  000B8C  D7FD               opt asmopt_pop
  2121                           
  2122                           	line	41
  2123                           	
  2124                           l825:
  2125  000B8E                     ;lcd.c: 41:     PORTD = ( c );
  2126                           	movff	(c:lcd_write@c),(c:3971)	;volatile
  2127  000B8E  C00A  FF83         	line	42
  2128                           	
  2129                           l827:
  2130  000B92                     ;lcd.c: 42:  ((LE1 = 1),(LE1=0));
  2131                           	bsf	c:(31849/8),(31849)&7	;volatile
  2132  000B92  828D               	
  2133                           l829:
  2134  000B94                     	bcf	c:(31849/8),(31849)&7	;volatile
  2135  000B94  928D               	line	45
  2136                           	
  2137                           l129:
  2138  000B96                     	return	;funcret
  2139  000B96  0012               	opt stack 0
  2140                           GLOBAL	__end_of_lcd_write
  2141                           	__end_of_lcd_write:
  2142  000B98                     	signat	_lcd_write,4217
  2143                           	global	_config
  2144                           
  2145 ;; *************** function _config *****************
  2146 ;; Defined at:
  2147 ;;		line 72 in file "./configura.h"
  2148 ;; Parameters:    Size  Location     Type
  2149 ;;		None
  2150 ;; Auto vars:     Size  Location     Type
  2151 ;;		None
  2152 ;; Return value:  Size  Location     Type
  2153 ;;                  1    wreg      void 
  2154 ;; Registers used:
  2155 ;;		wreg, status,2
  2156 ;; Tracked objects:
  2157 ;;		On entry : 0/0
  2158 ;;		On exit  : 0/0
  2159 ;;		Unchanged: 0/0
  2160 ;; Data sizes:     COMRAM   BANK0   BANK1   BANK2   BANK3   BANK4   BANK5
  2161 ;;      Params:         0       0       0       0       0       0       0
  2162 ;;      Locals:         0       0       0       0       0       0       0
  2163 ;;      Temps:          0       0       0       0       0       0       0
  2164 ;;      Totals:         0       0       0       0       0       0       0
  2165 ;;Total ram usage:        0 bytes
  2166 ;; Hardware stack levels used:    1
  2167 ;; Hardware stack levels required when called:    4
  2168 ;; This function calls:
  2169 ;;		Nothing
  2170 ;; This function is called by:
  2171 ;;		_main
  2172 ;; This function uses a non-reentrant model
  2173 ;;
  2174                           psect	text5,class=CODE,space=0,reloc=2,group=0
  2175                           	file	"./configura.h"
  2176                           	line	72
  2177                           global __ptext5
  2178                           __ptext5:
  2179  0009F0                     psect	text5
  2180                           	file	"./configura.h"
  2181                           	line	72
  2182                           	global	__size_of_config
  2183                           	__size_of_config	equ	__end_of_config-_config
  2184  0000                     	
  2185                           _config:
  2186  0009F0                     ;incstack = 0
  2187                           	opt	stack 26
  2188                           	line	74
  2189                           	
  2190                           l863:
  2191  0009F0                     	movlw	low(0DFh)
  2192  0009F0  0EDF               	movwf	((c:3986)),c	;volatile
  2193  0009F2  6E92               	line	75
  2194                           	movlw	low(0)
  2195  0009F4  0E00               	movwf	((c:3987)),c	;volatile
  2196  0009F6  6E93               	line	76
  2197                           	
  2198                           l865:
  2199  0009F8                     	setf	((c:3988)),c	;volatile
  2200  0009F8  6894               	line	77
  2201                           	movlw	low(0)
  2202  0009FA  0E00               	movwf	((c:3989)),c	;volatile
  2203  0009FC  6E95               	line	78
  2204                           	movlw	low(0Ch)
  2205  0009FE  0E0C               	movwf	((c:3990)),c	;volatile
  2206  000A00  6E96               	line	79
  2207                           	movlw	low(063h)
  2208  000A02  0E63               	movwf	((c:4051)),c	;volatile
  2209  000A04  6ED3               	line	80
  2210                           	
  2211                           l867:
  2212  000A06                     	bsf	c:(32391/8),(32391)&7	;volatile
  2213  000A06  8ED0               	line	81
  2214                           	
  2215                           l869:
  2216  000A08                     	bsf	c:(31981/8),(31981)&7	;volatile
  2217  000A08  8A9D               	line	82
  2218                           	
  2219                           l871:
  2220  000A0A                     	bsf	c:(31997/8),(31997)&7	;volatile
  2221  000A0A  8A9F               	line	83
  2222                           	movlw	low(0C0h)
  2223  000A0C  0EC0               	movwf	((c:4082)),c	;volatile
  2224  000A0E  6EF2               	line	84
  2225                           	movlw	low(0C3h)
  2226  000A10  0EC3               	movwf	((c:4053)),c	;volatile
  2227  000A12  6ED5               	line	85
  2228                           	movlw	low(01h)
  2229  000A14  0E01               	movwf	((c:4034)),c	;volatile
  2230  000A16  6EC2               	line	86
  2231                           	movlw	low(0Eh)
  2232  000A18  0E0E               	movwf	((c:4033)),c	;volatile
  2233  000A1A  6EC1               	line	87
  2234                           	movlw	low(094h)
  2235  000A1C  0E94               	movwf	((c:4032)),c	;volatile
  2236  000A1E  6EC0               	line	88
  2237                           	movlw	low(024h)
  2238  000A20  0E24               	movwf	((c:4012)),c	;volatile
  2239  000A22  6EAC               	line	89
  2240                           	movlw	low(090h)
  2241  000A24  0E90               	movwf	((c:4011)),c	;volatile
  2242  000A26  6EAB               	line	90
  2243                           	movlw	low(0)
  2244  000A28  0E00               	movwf	((c:4024)),c	;volatile
  2245  000A2A  6EB8               	line	91
  2246                           	movlw	low(019h)
  2247  000A2C  0E19               	movwf	((c:4015)),c	;volatile
  2248  000A2E  6EAF               	line	93
  2249                           	
  2250                           l63:
  2251  000A30                     	return	;funcret
  2252  000A30  0012               	opt stack 0
  2253                           GLOBAL	__end_of_config
  2254                           	__end_of_config:
  2255  000A32                     	signat	_config,89
  2256                           	global	_tmr
  2257                           
  2258 ;; *************** function _tmr *****************
  2259 ;; Defined at:
  2260 ;;		line 132 in file "Fechadura.c"
  2261 ;; Parameters:    Size  Location     Type
  2262 ;;		None
  2263 ;; Auto vars:     Size  Location     Type
  2264 ;;		None
  2265 ;; Return value:  Size  Location     Type
  2266 ;;                  1    wreg      void 
  2267 ;; Registers used:
  2268 ;;		wreg, status,2, status,0, tblptrl, tblptrh, tblptru, cstack
  2269 ;; Tracked objects:
  2270 ;;		On entry : 0/0
  2271 ;;		On exit  : 0/0
  2272 ;;		Unchanged: 0/0
  2273 ;; Data sizes:     COMRAM   BANK0   BANK1   BANK2   BANK3   BANK4   BANK5
  2274 ;;      Params:         0       0       0       0       0       0       0
  2275 ;;      Locals:         0       0       0       0       0       0       0
  2276 ;;      Temps:          4       0       0       0       0       0       0
  2277 ;;      Totals:         4       0       0       0       0       0       0
  2278 ;;Total ram usage:        4 bytes
  2279 ;; Hardware stack levels used:    1
  2280 ;; Hardware stack levels required when called:    3
  2281 ;; This function calls:
  2282 ;;		_abrirPorta
  2283 ;;		_alarme
  2284 ;;		_desligAlarme
  2285 ;;		_trocarSenha
  2286 ;; This function is called by:
  2287 ;;		Interrupt level 2
  2288 ;; This function uses a non-reentrant model
  2289 ;;
  2290                           psect	intcode,class=CODE,space=0,reloc=2
  2291                           global __pintcode
  2292                           __pintcode:
  2293  000008                     psect	intcode
  2294                           	file	"Fechadura.c"
  2295                           	line	132
  2296                           	global	__size_of_tmr
  2297                           	__size_of_tmr	equ	__end_of_tmr-_tmr
  2298  0000                     	
  2299                           _tmr:
  2300  000008                     ;incstack = 0
  2301                           	opt	stack 24
  2302                           	bsf int$flags,1,c ;set compiler interrupt flag (level 2)
  2303  000008  8213               	global	int_func
  2304                           	call	int_func,f	;refresh shadow registers
  2305  00000A  ED1D  F004         psect	intcode_body,class=CODE,space=0,reloc=2
  2306                           global __pintcode_body
  2307                           __pintcode_body:
  2308  00083A                     int_func:
  2309  00083A                     
  2310                           	pop	; remove dummy address from shadow register refresh
  2311  00083A  0006               	movff	tblptrl+0,??_tmr+0
  2312  00083C  CFF6 F006          	movff	tblptrh+0,??_tmr+1
  2313  000840  CFF7 F007          	movff	tblptru+0,??_tmr+2
  2314  000844  CFF8 F008          	movff	tablat+0,??_tmr+3
  2315  000848  CFF5 F009          	line	134
  2316                           	
  2317                           i2l1235:
  2318  00084C                     ;Fechadura.c: 134:     if (RCIF)
  2319                           	btfss	c:(31989/8),(31989)&7	;volatile
  2320  00084C  AA9E               	goto	i2u26_41
  2321  00084E  EF2B  F004         	goto	i2u26_40
  2322  000852  EF2D  F004         i2u26_41:
  2323  000856                     	goto	i2l118
  2324  000856  EF6A  F004         i2u26_40:
  2325  00085A                     	line	136
  2326                           	
  2327                           i2l1237:
  2328  00085A                     ;Fechadura.c: 135:     {;Fechadura.c: 136:         RCIF=0;
  2329                           	bcf	c:(31989/8),(31989)&7	;volatile
  2330  00085A  9A9E               	line	138
  2331                           	
  2332                           i2l1239:
  2333  00085C                     ;Fechadura.c: 138:         if(RCREG == 'a'){
  2334                           		movlw	97
  2335  00085C  0E61               	xorwf	((c:4014)),c,w	;volatile
  2336  00085E  18AE               	btfss	status,2
  2337  000860  A4D8               	goto	i2u27_41
  2338  000862  EF35  F004         	goto	i2u27_40
  2339  000866  EF37  F004         
  2340                           i2u27_41:
  2341  00086A                     	goto	i2l1243
  2342  00086A  EF3B  F004         i2u27_40:
  2343  00086E                     	line	139
  2344                           	
  2345                           i2l1241:
  2346  00086E                     ;Fechadura.c: 139:             abrirPorta();
  2347                           	call	_abrirPorta	;wreg free
  2348  00086E  EC8D  F005         	line	140
  2349                           ;Fechadura.c: 140:         }
  2350                           	goto	i2l118
  2351  000872  EF6A  F004         	line	142
  2352                           ;Fechadura.c: 142:         else {
  2353                           	
  2354                           i2l111:
  2355  000876                     	line	143
  2356                           	
  2357                           i2l1243:
  2358  000876                     ;Fechadura.c: 143:             if(RCREG == 'b'){
  2359                           		movlw	98
  2360  000876  0E62               	xorwf	((c:4014)),c,w	;volatile
  2361  000878  18AE               	btfss	status,2
  2362  00087A  A4D8               	goto	i2u28_41
  2363  00087C  EF42  F004         	goto	i2u28_40
  2364  000880  EF44  F004         
  2365                           i2u28_41:
  2366  000884                     	goto	i2l1247
  2367  000884  EF48  F004         i2u28_40:
  2368  000888                     	line	144
  2369                           	
  2370                           i2l1245:
  2371  000888                     ;Fechadura.c: 144:                 trocarSenha();
  2372                           	call	_trocarSenha	;wreg free
  2373  000888  EC7D  F003         	line	145
  2374                           ;Fechadura.c: 145:             }
  2375                           	goto	i2l118
  2376  00088C  EF6A  F004         	line	146
  2377                           ;Fechadura.c: 146:             else {
  2378                           	
  2379                           i2l113:
  2380  000890                     	line	147
  2381                           	
  2382                           i2l1247:
  2383  000890                     ;Fechadura.c: 147:                     if(RCREG == 'd'){
  2384                           		movlw	100
  2385  000890  0E64               	xorwf	((c:4014)),c,w	;volatile
  2386  000892  18AE               	btfss	status,2
  2387  000894  A4D8               	goto	i2u29_41
  2388  000896  EF4F  F004         	goto	i2u29_40
  2389  00089A  EF51  F004         
  2390                           i2u29_41:
  2391  00089E                     	goto	i2l1251
  2392  00089E  EF55  F004         i2u29_40:
  2393  0008A2                     	line	148
  2394                           	
  2395                           i2l1249:
  2396  0008A2                     ;Fechadura.c: 148:                         alarme();
  2397                           	call	_alarme	;wreg free
  2398  0008A2  EC78  F005         	line	149
  2399                           ;Fechadura.c: 149:                     }
  2400                           	goto	i2l118
  2401  0008A6  EF6A  F004         	line	150
  2402                           ;Fechadura.c: 150:                     else if(RCREG == 'e'){
  2403                           	
  2404                           i2l115:
  2405  0008AA                     	
  2406                           i2l1251:
  2407  0008AA                     		movlw	101
  2408  0008AA  0E65               	xorwf	((c:4014)),c,w	;volatile
  2409  0008AC  18AE               	btfss	status,2
  2410  0008AE  A4D8               	goto	i2u30_41
  2411  0008B0  EF5C  F004         	goto	i2u30_40
  2412  0008B4  EF5E  F004         
  2413                           i2u30_41:
  2414  0008B8                     	goto	i2l118
  2415  0008B8  EF6A  F004         i2u30_40:
  2416  0008BC                     	line	151
  2417                           	
  2418                           i2l1253:
  2419  0008BC                     ;Fechadura.c: 151:                         desligAlarme();
  2420                           	call	_desligAlarme	;wreg free
  2421  0008BC  EC59  F005         	goto	i2l118
  2422  0008C0  EF6A  F004         	line	152
  2423                           ;Fechadura.c: 152:                     }
  2424                           	
  2425                           i2l117:
  2426  0008C4                     	goto	i2l118
  2427  0008C4  EF6A  F004         	
  2428                           i2l116:
  2429  0008C8                     	goto	i2l118
  2430  0008C8  EF6A  F004         	line	153
  2431                           ;Fechadura.c: 153:             }
  2432                           	
  2433                           i2l114:
  2434  0008CC                     	goto	i2l118
  2435  0008CC  EF6A  F004         	line	154
  2436                           ;Fechadura.c: 154:         }
  2437                           	
  2438                           i2l112:
  2439  0008D0                     	goto	i2l118
  2440  0008D0  EF6A  F004         	line	155
  2441                           ;Fechadura.c: 155:     }
  2442                           	
  2443                           i2l110:
  2444  0008D4                     	line	156
  2445                           	
  2446                           i2l118:
  2447  0008D4                     	movff	??_tmr+3,tablat+0
  2448  0008D4  C009  FFF5         	movff	??_tmr+2,tblptru+0
  2449  0008D8  C008  FFF8         	movff	??_tmr+1,tblptrh+0
  2450  0008DC  C007  FFF7         	movff	??_tmr+0,tblptrl+0
  2451  0008E0  C006  FFF6         	bcf int$flags,1,c ;clear compiler interrupt flag (level 2)
  2452  0008E4  9213               	retfie f
  2453  0008E6  0011               	opt stack 0
  2454                           GLOBAL	__end_of_tmr
  2455                           	__end_of_tmr:
  2456  0008E8                     	signat	_tmr,89
  2457                           	global	_trocarSenha
  2458                           
  2459 ;; *************** function _trocarSenha *****************
  2460 ;; Defined at:
  2461 ;;		line 28 in file "Fechadura.c"
  2462 ;; Parameters:    Size  Location     Type
  2463 ;;		None
  2464 ;; Auto vars:     Size  Location     Type
  2465 ;;		None
  2466 ;; Return value:  Size  Location     Type
  2467 ;;                  1    wreg      void 
  2468 ;; Registers used:
  2469 ;;		wreg, status,2, status,0, tblptrl, tblptrh, tblptru, cstack
  2470 ;; Tracked objects:
  2471 ;;		On entry : 0/0
  2472 ;;		On exit  : 0/0
  2473 ;;		Unchanged: 0/0
  2474 ;; Data sizes:     COMRAM   BANK0   BANK1   BANK2   BANK3   BANK4   BANK5
  2475 ;;      Params:         0       0       0       0       0       0       0
  2476 ;;      Locals:         0       0       0       0       0       0       0
  2477 ;;      Temps:          2       0       0       0       0       0       0
  2478 ;;      Totals:         2       0       0       0       0       0       0
  2479 ;;Total ram usage:        2 bytes
  2480 ;; Hardware stack levels used:    1
  2481 ;; Hardware stack levels required when called:    2
  2482 ;; This function calls:
  2483 ;;		_lcd_goto
  2484 ;;		i2_lcd_clear
  2485 ;;		i2_lcd_puts
  2486 ;; This function is called by:
  2487 ;;		_tmr
  2488 ;; This function uses a non-reentrant model
  2489 ;;
  2490                           psect	text7,class=CODE,space=0,reloc=2,group=0
  2491                           	line	28
  2492                           global __ptext7
  2493                           __ptext7:
  2494  0006FA                     psect	text7
  2495                           	file	"Fechadura.c"
  2496                           	line	28
  2497                           	global	__size_of_trocarSenha
  2498                           	__size_of_trocarSenha	equ	__end_of_trocarSenha-_trocarSenha
  2499  0000                     	
  2500                           _trocarSenha:
  2501  0006FA                     ;incstack = 0
  2502                           	opt	stack 24
  2503                           	line	29
  2504                           	
  2505                           i2l1115:
  2506  0006FA                     ;Fechadura.c: 29:     lcd_clear();
  2507                           	call	i2_lcd_clear	;wreg free
  2508  0006FA  ECB6  F005         	line	30
  2509                           	
  2510                           i2l1117:
  2511  0006FE                     ;Fechadura.c: 30:     lcd_puts("Modo mudar senha:");
  2512                           		movlw	low(STR_2)
  2513  0006FE  0E83               	movwf	((c:i2lcd_puts@s)),c
  2514  000700  6E02               	movlw	high(STR_2)
  2515  000702  0E06               	movwf	((c:i2lcd_puts@s+1)),c
  2516  000704  6E03               
  2517                           	call	i2_lcd_puts	;wreg free
  2518  000706  EC39  F005         	line	31
  2519                           	
  2520                           i2l1119:
  2521  00070A                     ;Fechadura.c: 31:     lcd_goto(40);
  2522                           	movlw	(028h)&0ffh
  2523  00070A  0E28               	
  2524                           	call	_lcd_goto
  2525  00070C  ECD6  F005         	line	32
  2526                           	
  2527                           i2l1121:
  2528  000710                     ;Fechadura.c: 32:     lcd_puts("Digite sua nova senha:");
  2529                           		movlw	low(STR_3)
  2530  000710  0E1D               	movwf	((c:i2lcd_puts@s)),c
  2531  000712  6E02               	movlw	high(STR_3)
  2532  000714  0E06               	movwf	((c:i2lcd_puts@s+1)),c
  2533  000716  6E03               
  2534                           	call	i2_lcd_puts	;wreg free
  2535  000718  EC39  F005         	line	33
  2536                           ;Fechadura.c: 33:     while(flag !=1){
  2537                           	goto	i2l1161
  2538  00071C  EF0D  F004         	
  2539                           i2l74:
  2540  000720                     	line	34
  2541                           ;Fechadura.c: 34:         PORTBbits.RB5 =1;
  2542                           	bsf	((c:3969)),c,5	;volatile
  2543  000720  8A81               	line	35
  2544                           	
  2545                           i2l1123:
  2546  000722                     ;Fechadura.c: 35:         _delay((unsigned long)((100)*(4000000/4000.0)));
  2547                           	opt asmopt_push
  2548                           opt asmopt_off
  2549                           movlw	130
  2550  000722  0E82               movwf	(??_trocarSenha+0+0)&0ffh,c,f
  2551  000724  6E04               	movlw	222
  2552  000726  0EDE               i2u38_47:
  2553  000728                     decfsz	wreg,f
  2554  000728  2EE8               	bra	i2u38_47
  2555  00072A  D7FE               	decfsz	(??_trocarSenha+0+0)&0ffh,c,f
  2556  00072C  2E04               	bra	i2u38_47
  2557  00072E  D7FC               opt asmopt_pop
  2558                           
  2559                           	line	36
  2560                           	
  2561                           i2l1125:
  2562  000730                     ;Fechadura.c: 36:         PORTBbits.RB5 =0;
  2563                           	bcf	((c:3969)),c,5	;volatile
  2564  000730  9A81               	line	37
  2565                           ;Fechadura.c: 37:         _delay((unsigned long)((100)*(4000000/4000.0)));
  2566                           	opt asmopt_push
  2567                           opt asmopt_off
  2568                           movlw	130
  2569  000732  0E82               movwf	(??_trocarSenha+0+0)&0ffh,c,f
  2570  000734  6E04               	movlw	222
  2571  000736  0EDE               i2u39_47:
  2572  000738                     decfsz	wreg,f
  2573  000738  2EE8               	bra	i2u39_47
  2574  00073A  D7FE               	decfsz	(??_trocarSenha+0+0)&0ffh,c,f
  2575  00073C  2E04               	bra	i2u39_47
  2576  00073E  D7FC               opt asmopt_pop
  2577                           
  2578                           	line	39
  2579                           	
  2580                           i2l1127:
  2581  000740                     ;Fechadura.c: 39:         if(RCREG == 'c'){
  2582                           		movlw	99
  2583  000740  0E63               	xorwf	((c:4014)),c,w	;volatile
  2584  000742  18AE               	btfss	status,2
  2585  000744  A4D8               	goto	i2u18_41
  2586  000746  EFA7  F003         	goto	i2u18_40
  2587  00074A  EFA9  F003         
  2588                           i2u18_41:
  2589  00074E                     	goto	i2l1147
  2590  00074E  EFDF  F003         i2u18_40:
  2591  000752                     	line	40
  2592                           	
  2593                           i2l1129:
  2594  000752                     ;Fechadura.c: 40:             flag =1;
  2595                           	movlw	high(01h)
  2596  000752  0E00               	movwf	((c:_flag+1)),c
  2597  000754  6E12               	movlw	low(01h)
  2598  000756  0E01               	movwf	((c:_flag)),c
  2599  000758  6E11               	line	41
  2600                           	
  2601                           i2l1131:
  2602  00075A                     ;Fechadura.c: 41:             lcd_clear();
  2603                           	call	i2_lcd_clear	;wreg free
  2604  00075A  ECB6  F005         	line	42
  2605                           	
  2606                           i2l1133:
  2607  00075E                     ;Fechadura.c: 42:             lcd_puts("Senha alterada");
  2608                           		movlw	low(STR_4)
  2609  00075E  0EB7               	movwf	((c:i2lcd_puts@s)),c
  2610  000760  6E02               	movlw	high(STR_4)
  2611  000762  0E06               	movwf	((c:i2lcd_puts@s+1)),c
  2612  000764  6E03               
  2613                           	call	i2_lcd_puts	;wreg free
  2614  000766  EC39  F005         	line	43
  2615                           	
  2616                           i2l1135:
  2617  00076A                     ;Fechadura.c: 43:             _delay((unsigned long)((1000)*(4000000/4000.0)));
  2618                           	opt asmopt_push
  2619                           opt asmopt_off
  2620                           movlw  6
  2621  00076A  0E06               movwf	(??_trocarSenha+0+0+1)&0ffh,c,f
  2622  00076C  6E05               movlw	19
  2623  00076E  0E13               movwf	(??_trocarSenha+0+0)&0ffh,c,f
  2624  000770  6E04               	movlw	174
  2625  000772  0EAE               i2u40_47:
  2626  000774                     decfsz	wreg,f
  2627  000774  2EE8               	bra	i2u40_47
  2628  000776  D7FE               	decfsz	(??_trocarSenha+0+0)&0ffh,c,f
  2629  000778  2E04               	bra	i2u40_47
  2630  00077A  D7FC               	decfsz	(??_trocarSenha+0+0+1)&0ffh,c,f
  2631  00077C  2E05               	bra	i2u40_47
  2632  00077E  D7FA               opt asmopt_pop
  2633                           
  2634                           	line	45
  2635                           	
  2636                           i2l1137:
  2637  000780                     ;Fechadura.c: 45:             if(flag1 == 1){
  2638                           		decf	((c:_flag1)),c,w
  2639  000780  040F               iorwf	((c:_flag1+1)),c,w
  2640  000782  1010               	btfss	status,2
  2641  000784  A4D8               	goto	i2u19_41
  2642  000786  EFC7  F003         	goto	i2u19_40
  2643  00078A  EFC9  F003         
  2644                           i2u19_41:
  2645  00078E                     	goto	i2l1143
  2646  00078E  EFD3  F003         i2u19_40:
  2647  000792                     	line	46
  2648                           	
  2649                           i2l1139:
  2650  000792                     ;Fechadura.c: 46:                 lcd_clear();
  2651                           	call	i2_lcd_clear	;wreg free
  2652  000792  ECB6  F005         	line	47
  2653                           	
  2654                           i2l1141:
  2655  000796                     ;Fechadura.c: 47:                 lcd_puts("Porta aberta");
  2656                           		movlw	low(STR_5)
  2657  000796  0EE1               	movwf	((c:i2lcd_puts@s)),c
  2658  000798  6E02               	movlw	high(STR_5)
  2659  00079A  0E06               	movwf	((c:i2lcd_puts@s+1)),c
  2660  00079C  6E03               
  2661                           	call	i2_lcd_puts	;wreg free
  2662  00079E  EC39  F005         	line	48
  2663                           ;Fechadura.c: 48:             }
  2664                           	goto	i2l1161
  2665  0007A2  EF0D  F004         	line	50
  2666                           ;Fechadura.c: 50:             else{
  2667                           	
  2668                           i2l76:
  2669  0007A6                     	line	51
  2670                           	
  2671                           i2l1143:
  2672  0007A6                     ;Fechadura.c: 51:                 lcd_clear();
  2673                           	call	i2_lcd_clear	;wreg free
  2674  0007A6  ECB6  F005         	line	52
  2675                           	
  2676                           i2l1145:
  2677  0007AA                     ;Fechadura.c: 52:                 lcd_puts("Porta fechada");
  2678                           		movlw	low(STR_6)
  2679  0007AA  0EC6               	movwf	((c:i2lcd_puts@s)),c
  2680  0007AC  6E02               	movlw	high(STR_6)
  2681  0007AE  0E06               	movwf	((c:i2lcd_puts@s+1)),c
  2682  0007B0  6E03               
  2683                           	call	i2_lcd_puts	;wreg free
  2684  0007B2  EC39  F005         	goto	i2l1161
  2685  0007B6  EF0D  F004         	line	53
  2686                           ;Fechadura.c: 53:             }
  2687                           	
  2688                           i2l77:
  2689  0007BA                     	line	54
  2690                           ;Fechadura.c: 54:         }
  2691                           	goto	i2l1161
  2692  0007BA  EF0D  F004         	line	55
  2693                           ;Fechadura.c: 55:         else {
  2694                           	
  2695                           i2l75:
  2696  0007BE                     	line	56
  2697                           	
  2698                           i2l1147:
  2699  0007BE                     ;Fechadura.c: 56:             if(RCREG == 'd') {
  2700                           		movlw	100
  2701  0007BE  0E64               	xorwf	((c:4014)),c,w	;volatile
  2702  0007C0  18AE               	btfss	status,2
  2703  0007C2  A4D8               	goto	i2u20_41
  2704  0007C4  EFE6  F003         	goto	i2u20_40
  2705  0007C8  EFE8  F003         
  2706                           i2u20_41:
  2707  0007CC                     	goto	i2l1161
  2708  0007CC  EF0D  F004         i2u20_40:
  2709  0007D0                     	line	57
  2710                           	
  2711                           i2l1149:
  2712  0007D0                     ;Fechadura.c: 57:                 flag =1;
  2713                           	movlw	high(01h)
  2714  0007D0  0E00               	movwf	((c:_flag+1)),c
  2715  0007D2  6E12               	movlw	low(01h)
  2716  0007D4  0E01               	movwf	((c:_flag)),c
  2717  0007D6  6E11               	line	58
  2718                           	
  2719                           i2l1151:
  2720  0007D8                     ;Fechadura.c: 58:                 lcd_clear();
  2721                           	call	i2_lcd_clear	;wreg free
  2722  0007D8  ECB6  F005         	line	59
  2723                           	
  2724                           i2l1153:
  2725  0007DC                     ;Fechadura.c: 59:                 lcd_puts("Senha não alterada");
  2726                           		movlw	low(STR_7)
  2727  0007DC  0E5E               	movwf	((c:i2lcd_puts@s)),c
  2728  0007DE  6E02               	movlw	high(STR_7)
  2729  0007E0  0E06               	movwf	((c:i2lcd_puts@s+1)),c
  2730  0007E2  6E03               
  2731                           	call	i2_lcd_puts	;wreg free
  2732  0007E4  EC39  F005         	line	60
  2733                           	
  2734                           i2l1155:
  2735  0007E8                     ;Fechadura.c: 60:                 _delay((unsigned long)((1000)*(4000000/4000.0)));
  2736                           	opt asmopt_push
  2737                           opt asmopt_off
  2738                           movlw  6
  2739  0007E8  0E06               movwf	(??_trocarSenha+0+0+1)&0ffh,c,f
  2740  0007EA  6E05               movlw	19
  2741  0007EC  0E13               movwf	(??_trocarSenha+0+0)&0ffh,c,f
  2742  0007EE  6E04               	movlw	174
  2743  0007F0  0EAE               i2u41_47:
  2744  0007F2                     decfsz	wreg,f
  2745  0007F2  2EE8               	bra	i2u41_47
  2746  0007F4  D7FE               	decfsz	(??_trocarSenha+0+0)&0ffh,c,f
  2747  0007F6  2E04               	bra	i2u41_47
  2748  0007F8  D7FC               	decfsz	(??_trocarSenha+0+0+1)&0ffh,c,f
  2749  0007FA  2E05               	bra	i2u41_47
  2750  0007FC  D7FA               opt asmopt_pop
  2751                           
  2752                           	line	61
  2753                           	
  2754                           i2l1157:
  2755  0007FE                     ;Fechadura.c: 61:                 lcd_clear();
  2756                           	call	i2_lcd_clear	;wreg free
  2757  0007FE  ECB6  F005         	line	62
  2758                           	
  2759                           i2l1159:
  2760  000802                     ;Fechadura.c: 62:                 lcd_puts("Digite sua senha:");
  2761                           		movlw	low(STR_8)
  2762  000802  0E71               	movwf	((c:i2lcd_puts@s)),c
  2763  000804  6E02               	movlw	high(STR_8)
  2764  000806  0E06               	movwf	((c:i2lcd_puts@s+1)),c
  2765  000808  6E03               
  2766                           	call	i2_lcd_puts	;wreg free
  2767  00080A  EC39  F005         	goto	i2l1161
  2768  00080E  EF0D  F004         	line	63
  2769                           ;Fechadura.c: 63:             }
  2770                           	
  2771                           i2l79:
  2772  000812                     	goto	i2l1161
  2773  000812  EF0D  F004         	line	64
  2774                           ;Fechadura.c: 64:         }
  2775                           	
  2776                           i2l78:
  2777  000816                     	goto	i2l1161
  2778  000816  EF0D  F004         	line	65
  2779                           ;Fechadura.c: 65:     }
  2780                           	
  2781                           i2l73:
  2782  00081A                     	line	33
  2783                           	
  2784                           i2l1161:
  2785  00081A                     ;Fechadura.c: 33:     while(flag !=1){
  2786                           		decf	((c:_flag)),c,w
  2787  00081A  0411               iorwf	((c:_flag+1)),c,w
  2788  00081C  1012               	btfss	status,2
  2789  00081E  A4D8               	goto	i2u21_41
  2790  000820  EF14  F004         	goto	i2u21_40
  2791  000824  EF16  F004         
  2792                           i2u21_41:
  2793  000828                     	goto	i2l74
  2794  000828  EF90  F003         i2u21_40:
  2795  00082C                     	goto	i2l1163
  2796  00082C  EF18  F004         	
  2797                           i2l80:
  2798  000830                     	line	66
  2799                           	
  2800                           i2l1163:
  2801  000830                     ;Fechadura.c: 66:     flag =0;
  2802                           	movlw	high(0)
  2803  000830  0E00               	movwf	((c:_flag+1)),c
  2804  000832  6E12               	movlw	low(0)
  2805  000834  0E00               	movwf	((c:_flag)),c
  2806  000836  6E11               	line	67
  2807                           	
  2808                           i2l81:
  2809  000838                     	return	;funcret
  2810  000838  0012               	opt stack 0
  2811                           GLOBAL	__end_of_trocarSenha
  2812                           	__end_of_trocarSenha:
  2813  00083A                     	signat	_trocarSenha,89
  2814                           	global	_desligAlarme
  2815                           
  2816 ;; *************** function _desligAlarme *****************
  2817 ;; Defined at:
  2818 ;;		line 94 in file "Fechadura.c"
  2819 ;; Parameters:    Size  Location     Type
  2820 ;;		None
  2821 ;; Auto vars:     Size  Location     Type
  2822 ;;		None
  2823 ;; Return value:  Size  Location     Type
  2824 ;;                  1    wreg      void 
  2825 ;; Registers used:
  2826 ;;		wreg, status,2, status,0, tblptrl, tblptrh, tblptru, cstack
  2827 ;; Tracked objects:
  2828 ;;		On entry : 0/0
  2829 ;;		On exit  : 0/0
  2830 ;;		Unchanged: 0/0
  2831 ;; Data sizes:     COMRAM   BANK0   BANK1   BANK2   BANK3   BANK4   BANK5
  2832 ;;      Params:         0       0       0       0       0       0       0
  2833 ;;      Locals:         0       0       0       0       0       0       0
  2834 ;;      Temps:          2       0       0       0       0       0       0
  2835 ;;      Totals:         2       0       0       0       0       0       0
  2836 ;;Total ram usage:        2 bytes
  2837 ;; Hardware stack levels used:    1
  2838 ;; Hardware stack levels required when called:    2
  2839 ;; This function calls:
  2840 ;;		i2_lcd_clear
  2841 ;;		i2_lcd_puts
  2842 ;; This function is called by:
  2843 ;;		_tmr
  2844 ;; This function uses a non-reentrant model
  2845 ;;
  2846                           psect	text8,class=CODE,space=0,reloc=2,group=0
  2847                           	line	94
  2848                           global __ptext8
  2849                           __ptext8:
  2850  000AB2                     psect	text8
  2851                           	file	"Fechadura.c"
  2852                           	line	94
  2853                           	global	__size_of_desligAlarme
  2854                           	__size_of_desligAlarme	equ	__end_of_desligAlarme-_desligAlarme
  2855  0000                     	
  2856                           _desligAlarme:
  2857  000AB2                     ;incstack = 0
  2858                           	opt	stack 24
  2859                           	line	95
  2860                           	
  2861                           i2l1175:
  2862  000AB2                     ;Fechadura.c: 95:     PORTBbits.RB5 =0;
  2863                           	bcf	((c:3969)),c,5	;volatile
  2864  000AB2  9A81               	line	96
  2865                           ;Fechadura.c: 96:     PORTBbits.RB0 =0;
  2866                           	bcf	((c:3969)),c,0	;volatile
  2867  000AB4  9081               	line	97
  2868                           ;Fechadura.c: 97:     PORTBbits.RB0 =0;
  2869                           	bcf	((c:3969)),c,0	;volatile
  2870  000AB6  9081               	line	98
  2871                           	
  2872                           i2l1177:
  2873  000AB8                     ;Fechadura.c: 98:     lcd_clear();
  2874                           	call	i2_lcd_clear	;wreg free
  2875  000AB8  ECB6  F005         	line	99
  2876                           	
  2877                           i2l1179:
  2878  000ABC                     ;Fechadura.c: 99:     lcd_puts("Alarme Desligado");
  2879                           		movlw	low(STR_14)
  2880  000ABC  0EA6               	movwf	((c:i2lcd_puts@s)),c
  2881  000ABE  6E02               	movlw	high(STR_14)
  2882  000AC0  0E06               	movwf	((c:i2lcd_puts@s+1)),c
  2883  000AC2  6E03               
  2884                           	call	i2_lcd_puts	;wreg free
  2885  000AC4  EC39  F005         	line	100
  2886                           	
  2887                           i2l1181:
  2888  000AC8                     ;Fechadura.c: 100:     _delay((unsigned long)((1000)*(4000000/4000.0)));
  2889                           	opt asmopt_push
  2890                           opt asmopt_off
  2891                           movlw  6
  2892  000AC8  0E06               movwf	(??_desligAlarme+0+0+1)&0ffh,c,f
  2893  000ACA  6E05               movlw	19
  2894  000ACC  0E13               movwf	(??_desligAlarme+0+0)&0ffh,c,f
  2895  000ACE  6E04               	movlw	174
  2896  000AD0  0EAE               i2u42_47:
  2897  000AD2                     decfsz	wreg,f
  2898  000AD2  2EE8               	bra	i2u42_47
  2899  000AD4  D7FE               	decfsz	(??_desligAlarme+0+0)&0ffh,c,f
  2900  000AD6  2E04               	bra	i2u42_47
  2901  000AD8  D7FC               	decfsz	(??_desligAlarme+0+0+1)&0ffh,c,f
  2902  000ADA  2E05               	bra	i2u42_47
  2903  000ADC  D7FA               opt asmopt_pop
  2904                           
  2905                           	line	101
  2906                           	
  2907                           i2l1183:
  2908  000ADE                     ;Fechadura.c: 101:     lcd_clear();
  2909                           	call	i2_lcd_clear	;wreg free
  2910  000ADE  ECB6  F005         	line	102
  2911                           	
  2912                           i2l1185:
  2913  000AE2                     ;Fechadura.c: 102:     lcd_puts("Digite sua senha");
  2914                           		movlw	low(STR_15)
  2915  000AE2  0E95               	movwf	((c:i2lcd_puts@s)),c
  2916  000AE4  6E02               	movlw	high(STR_15)
  2917  000AE6  0E06               	movwf	((c:i2lcd_puts@s+1)),c
  2918  000AE8  6E03               
  2919                           	call	i2_lcd_puts	;wreg free
  2920  000AEA  EC39  F005         	line	103
  2921                           	
  2922                           i2l92:
  2923  000AEE                     	return	;funcret
  2924  000AEE  0012               	opt stack 0
  2925                           GLOBAL	__end_of_desligAlarme
  2926                           	__end_of_desligAlarme:
  2927  000AF0                     	signat	_desligAlarme,89
  2928                           	global	_alarme
  2929                           
  2930 ;; *************** function _alarme *****************
  2931 ;; Defined at:
  2932 ;;		line 84 in file "Fechadura.c"
  2933 ;; Parameters:    Size  Location     Type
  2934 ;;		None
  2935 ;; Auto vars:     Size  Location     Type
  2936 ;;		None
  2937 ;; Return value:  Size  Location     Type
  2938 ;;                  1    wreg      void 
  2939 ;; Registers used:
  2940 ;;		wreg, status,2, status,0, tblptrl, tblptrh, tblptru, cstack
  2941 ;; Tracked objects:
  2942 ;;		On entry : 0/0
  2943 ;;		On exit  : 0/0
  2944 ;;		Unchanged: 0/0
  2945 ;; Data sizes:     COMRAM   BANK0   BANK1   BANK2   BANK3   BANK4   BANK5
  2946 ;;      Params:         0       0       0       0       0       0       0
  2947 ;;      Locals:         0       0       0       0       0       0       0
  2948 ;;      Temps:          0       0       0       0       0       0       0
  2949 ;;      Totals:         0       0       0       0       0       0       0
  2950 ;;Total ram usage:        0 bytes
  2951 ;; Hardware stack levels used:    1
  2952 ;; Hardware stack levels required when called:    2
  2953 ;; This function calls:
  2954 ;;		_lcd_goto
  2955 ;;		i2_lcd_clear
  2956 ;;		i2_lcd_puts
  2957 ;; This function is called by:
  2958 ;;		_tmr
  2959 ;; This function uses a non-reentrant model
  2960 ;;
  2961                           psect	text9,class=CODE,space=0,reloc=2,group=0
  2962                           	line	84
  2963                           global __ptext9
  2964                           __ptext9:
  2965  000AF0                     psect	text9
  2966                           	file	"Fechadura.c"
  2967                           	line	84
  2968                           	global	__size_of_alarme
  2969                           	__size_of_alarme	equ	__end_of_alarme-_alarme
  2970  0000                     	
  2971                           _alarme:
  2972  000AF0                     ;incstack = 0
  2973                           	opt	stack 24
  2974                           	line	85
  2975                           	
  2976                           i2l1165:
  2977  000AF0                     ;Fechadura.c: 85:     PORTBbits.RB7 =1;
  2978                           	bsf	((c:3969)),c,7	;volatile
  2979  000AF0  8E81               	line	86
  2980                           ;Fechadura.c: 86:     PORTBbits.RB5 =1;
  2981                           	bsf	((c:3969)),c,5	;volatile
  2982  000AF2  8A81               	line	87
  2983                           ;Fechadura.c: 87:     PORTBbits.RB0 =1;
  2984                           	bsf	((c:3969)),c,0	;volatile
  2985  000AF4  8081               	line	88
  2986                           	
  2987                           i2l1167:
  2988  000AF6                     ;Fechadura.c: 88:     lcd_clear();
  2989                           	call	i2_lcd_clear	;wreg free
  2990  000AF6  ECB6  F005         	line	89
  2991                           	
  2992                           i2l1169:
  2993  000AFA                     ;Fechadura.c: 89:     lcd_puts("    ALARME");
  2994                           		movlw	low(STR_12)
  2995  000AFA  0EEE               	movwf	((c:i2lcd_puts@s)),c
  2996  000AFC  6E02               	movlw	high(STR_12)
  2997  000AFE  0E06               	movwf	((c:i2lcd_puts@s+1)),c
  2998  000B00  6E03               
  2999                           	call	i2_lcd_puts	;wreg free
  3000  000B02  EC39  F005         	line	90
  3001                           	
  3002                           i2l1171:
  3003  000B06                     ;Fechadura.c: 90:     lcd_goto(40);
  3004                           	movlw	(028h)&0ffh
  3005  000B06  0E28               	
  3006                           	call	_lcd_goto
  3007  000B08  ECD6  F005         	line	91
  3008                           	
  3009                           i2l1173:
  3010  000B0C                     ;Fechadura.c: 91:     lcd_puts("Digite a senha padrao:");
  3011                           		movlw	low(STR_13)
  3012  000B0C  0E34               	movwf	((c:i2lcd_puts@s)),c
  3013  000B0E  6E02               	movlw	high(STR_13)
  3014  000B10  0E06               	movwf	((c:i2lcd_puts@s+1)),c
  3015  000B12  6E03               
  3016                           	call	i2_lcd_puts	;wreg free
  3017  000B14  EC39  F005         	line	92
  3018                           	
  3019                           i2l89:
  3020  000B18                     	return	;funcret
  3021  000B18  0012               	opt stack 0
  3022                           GLOBAL	__end_of_alarme
  3023                           	__end_of_alarme:
  3024  000B1A                     	signat	_alarme,89
  3025                           	global	_lcd_goto
  3026                           
  3027 ;; *************** function _lcd_goto *****************
  3028 ;; Defined at:
  3029 ;;		line 84 in file "lcd.c"
  3030 ;; Parameters:    Size  Location     Type
  3031 ;;  pos             1    wreg     unsigned char 
  3032 ;; Auto vars:     Size  Location     Type
  3033 ;;  pos             1    1[COMRAM] unsigned char 
  3034 ;; Return value:  Size  Location     Type
  3035 ;;                  1    wreg      void 
  3036 ;; Registers used:
  3037 ;;		wreg, status,2, status,0, cstack
  3038 ;; Tracked objects:
  3039 ;;		On entry : 0/0
  3040 ;;		On exit  : 0/0
  3041 ;;		Unchanged: 0/0
  3042 ;; Data sizes:     COMRAM   BANK0   BANK1   BANK2   BANK3   BANK4   BANK5
  3043 ;;      Params:         0       0       0       0       0       0       0
  3044 ;;      Locals:         1       0       0       0       0       0       0
  3045 ;;      Temps:          0       0       0       0       0       0       0
  3046 ;;      Totals:         1       0       0       0       0       0       0
  3047 ;;Total ram usage:        1 bytes
  3048 ;; Hardware stack levels used:    1
  3049 ;; Hardware stack levels required when called:    1
  3050 ;; This function calls:
  3051 ;;		i2_lcd_write
  3052 ;; This function is called by:
  3053 ;;		_trocarSenha
  3054 ;;		_alarme
  3055 ;; This function uses a non-reentrant model
  3056 ;;
  3057                           psect	text10,class=CODE,space=0,reloc=2,group=0
  3058                           	file	"lcd.c"
  3059                           	line	84
  3060                           global __ptext10
  3061                           __ptext10:
  3062  000BAC                     psect	text10
  3063                           	file	"lcd.c"
  3064                           	line	84
  3065                           	global	__size_of_lcd_goto
  3066                           	__size_of_lcd_goto	equ	__end_of_lcd_goto-_lcd_goto
  3067  0000                     	
  3068                           _lcd_goto:
  3069  000BAC                     ;incstack = 0
  3070                           	opt	stack 24
  3071                           ;lcd_goto@pos stored from wreg
  3072                           	movwf	((c:lcd_goto@pos)),c
  3073  000BAC  6E02               	line	86
  3074                           	
  3075                           i2l1081:
  3076  000BAE                     ;lcd.c: 84: lcd_goto(unsigned char pos);lcd.c: 85: {;lcd.c: 86:  LE0 = 0;
  3077                           	bcf	c:(31848/8),(31848)&7	;volatile
  3078  000BAE  908D               	line	87
  3079                           	
  3080                           i2l1083:
  3081  000BB0                     ;lcd.c: 87:  lcd_write(0x80+pos);
  3082                           	movf	((c:lcd_goto@pos)),c,w
  3083  000BB0  5002               	addlw	low(080h)
  3084  000BB2  0F80               	
  3085                           	call	i2_lcd_write
  3086  000BB4  ECCC  F005         	line	88
  3087                           	
  3088                           i2l144:
  3089  000BB8                     	return	;funcret
  3090  000BB8  0012               	opt stack 0
  3091                           GLOBAL	__end_of_lcd_goto
  3092                           	__end_of_lcd_goto:
  3093  000BBA                     	signat	_lcd_goto,4217
  3094                           	global	_abrirPorta
  3095                           
  3096 ;; *************** function _abrirPorta *****************
  3097 ;; Defined at:
  3098 ;;		line 19 in file "Fechadura.c"
  3099 ;; Parameters:    Size  Location     Type
  3100 ;;		None
  3101 ;; Auto vars:     Size  Location     Type
  3102 ;;		None
  3103 ;; Return value:  Size  Location     Type
  3104 ;;                  1    wreg      void 
  3105 ;; Registers used:
  3106 ;;		wreg, status,2, status,0, tblptrl, tblptrh, tblptru, cstack
  3107 ;; Tracked objects:
  3108 ;;		On entry : 0/0
  3109 ;;		On exit  : 0/0
  3110 ;;		Unchanged: 0/0
  3111 ;; Data sizes:     COMRAM   BANK0   BANK1   BANK2   BANK3   BANK4   BANK5
  3112 ;;      Params:         0       0       0       0       0       0       0
  3113 ;;      Locals:         0       0       0       0       0       0       0
  3114 ;;      Temps:          0       0       0       0       0       0       0
  3115 ;;      Totals:         0       0       0       0       0       0       0
  3116 ;;Total ram usage:        0 bytes
  3117 ;; Hardware stack levels used:    1
  3118 ;; Hardware stack levels required when called:    2
  3119 ;; This function calls:
  3120 ;;		i2_lcd_clear
  3121 ;;		i2_lcd_puts
  3122 ;; This function is called by:
  3123 ;;		_tmr
  3124 ;; This function uses a non-reentrant model
  3125 ;;
  3126                           psect	text11,class=CODE,space=0,reloc=2,group=0
  3127                           	file	"Fechadura.c"
  3128                           	line	19
  3129                           global __ptext11
  3130                           __ptext11:
  3131  000B1A                     psect	text11
  3132                           	file	"Fechadura.c"
  3133                           	line	19
  3134                           	global	__size_of_abrirPorta
  3135                           	__size_of_abrirPorta	equ	__end_of_abrirPorta-_abrirPorta
  3136  0000                     	
  3137                           _abrirPorta:
  3138  000B1A                     ;incstack = 0
  3139                           	opt	stack 24
  3140                           	line	20
  3141                           	
  3142                           i2l1099:
  3143  000B1A                     ;Fechadura.c: 20:     PORTBbits.RB5 =0;
  3144                           	bcf	((c:3969)),c,5	;volatile
  3145  000B1A  9A81               	line	21
  3146                           ;Fechadura.c: 21:     PORTBbits.RB7 =0;
  3147                           	bcf	((c:3969)),c,7	;volatile
  3148  000B1C  9E81               	line	22
  3149                           ;Fechadura.c: 22:     PORTBbits.RB0 =1;
  3150                           	bsf	((c:3969)),c,0	;volatile
  3151  000B1E  8081               	line	23
  3152                           	
  3153                           i2l1101:
  3154  000B20                     ;Fechadura.c: 23:     lcd_clear();
  3155                           	call	i2_lcd_clear	;wreg free
  3156  000B20  ECB6  F005         	line	24
  3157                           	
  3158                           i2l1103:
  3159  000B24                     ;Fechadura.c: 24:     lcd_puts("Porta Aberta");
  3160                           		movlw	low(STR_1)
  3161  000B24  0ED4               	movwf	((c:i2lcd_puts@s)),c
  3162  000B26  6E02               	movlw	high(STR_1)
  3163  000B28  0E06               	movwf	((c:i2lcd_puts@s+1)),c
  3164  000B2A  6E03               
  3165                           	call	i2_lcd_puts	;wreg free
  3166  000B2C  EC39  F005         	line	25
  3167                           	
  3168                           i2l1105:
  3169  000B30                     ;Fechadura.c: 25:     flag1 = 1;
  3170                           	movlw	high(01h)
  3171  000B30  0E00               	movwf	((c:_flag1+1)),c
  3172  000B32  6E10               	movlw	low(01h)
  3173  000B34  0E01               	movwf	((c:_flag1)),c
  3174  000B36  6E0F               	line	26
  3175                           	
  3176                           i2l70:
  3177  000B38                     	return	;funcret
  3178  000B38  0012               	opt stack 0
  3179                           GLOBAL	__end_of_abrirPorta
  3180                           	__end_of_abrirPorta:
  3181  000B3A                     	signat	_abrirPorta,89
  3182                           	global	i2_lcd_puts
  3183                           
  3184 ;; *************** function i2_lcd_puts *****************
  3185 ;; Defined at:
  3186 ;;		line 62 in file "lcd.c"
  3187 ;; Parameters:    Size  Location     Type
  3188 ;;  s               2    1[COMRAM] PTR const unsigned char 
  3189 ;;		 -> STR_17(19), STR_16(18), STR_15(17), STR_14(17), 
  3190 ;;		 -> STR_13(23), STR_12(11), STR_11(14), STR_10(13), 
  3191 ;;		 -> STR_9(28), STR_8(18), STR_7(19), STR_6(14), 
  3192 ;;		 -> STR_5(13), STR_4(15), STR_3(23), STR_2(18), 
  3193 ;;		 -> STR_1(13), 
  3194 ;; Auto vars:     Size  Location     Type
  3195 ;;		None
  3196 ;; Return value:  Size  Location     Type
  3197 ;;                  1    wreg      void 
  3198 ;; Registers used:
  3199 ;;		wreg, status,2, status,0, tblptrl, tblptrh, tblptru, cstack
  3200 ;; Tracked objects:
  3201 ;;		On entry : 0/0
  3202 ;;		On exit  : 0/0
  3203 ;;		Unchanged: 0/0
  3204 ;; Data sizes:     COMRAM   BANK0   BANK1   BANK2   BANK3   BANK4   BANK5
  3205 ;;      Params:         2       0       0       0       0       0       0
  3206 ;;      Locals:         0       0       0       0       0       0       0
  3207 ;;      Temps:          0       0       0       0       0       0       0
  3208 ;;      Totals:         2       0       0       0       0       0       0
  3209 ;;Total ram usage:        2 bytes
  3210 ;; Hardware stack levels used:    1
  3211 ;; Hardware stack levels required when called:    1
  3212 ;; This function calls:
  3213 ;;		i2_lcd_write
  3214 ;; This function is called by:
  3215 ;;		_abrirPorta
  3216 ;;		_trocarSenha
  3217 ;;		_alarme
  3218 ;;		_desligAlarme
  3219 ;; This function uses a non-reentrant model
  3220 ;;
  3221                           psect	text12,class=CODE,space=0,reloc=2,group=0
  3222                           	file	"lcd.c"
  3223                           	line	62
  3224                           global __ptext12
  3225                           __ptext12:
  3226  000A72                     psect	text12
  3227                           	file	"lcd.c"
  3228                           	line	62
  3229                           	global	__size_ofi2_lcd_puts
  3230                           	__size_ofi2_lcd_puts	equ	__end_ofi2_lcd_puts-i2_lcd_puts
  3231  0000                     	
  3232                           i2_lcd_puts:
  3233  000A72                     ;incstack = 0
  3234                           	opt	stack 24
  3235                           	line	64
  3236                           	
  3237                           i2l1091:
  3238  000A72                     ;lcd.c: 62: lcd_puts(const char * s);lcd.c: 63: {;lcd.c: 64:  LE0 = 1;
  3239                           	bsf	c:(31848/8),(31848)&7	;volatile
  3240  000A72  808D               	line	65
  3241                           ;lcd.c: 65:  while(*s)
  3242                           	goto	i2l1097
  3243  000A74  EF48  F005         	
  3244                           i2l136:
  3245  000A78                     	line	66
  3246                           	
  3247                           i2l1093:
  3248  000A78                     ;lcd.c: 66:   lcd_write(*s++);
  3249                           	movff	(c:i2lcd_puts@s),tblptrl
  3250  000A78  C002  FFF6         	movff	(c:i2lcd_puts@s+1),tblptrh
  3251  000A7C  C003  FFF7         	if	0	;tblptru may be non-zero
  3252  000A80                     	clrf	tblptru
  3254  000A80                     	if	0	;tblptru may be non-zero
  3255  000A80                     	global __mediumconst
  3256                           movlw	low highword(__mediumconst)
  3259  000A80                     	tblrd	*
  3260  000A80  0008               	
  3261                           	movf	tablat,w
  3262  000A82  50F5               	
  3263                           	call	i2_lcd_write
  3264  000A84  ECCC  F005         	
  3265                           i2l1095:
  3266  000A88                     	infsnz	((c:i2lcd_puts@s)),c
  3267  000A88  4A02               	incf	((c:i2lcd_puts@s+1)),c
  3268  000A8A  2A03               	goto	i2l1097
  3269  000A8C  EF48  F005         	
  3270                           i2l135:
  3271  000A90                     	line	65
  3272                           	
  3273                           i2l1097:
  3274  000A90                     ;lcd.c: 65:  while(*s)
  3275                           	movff	(c:i2lcd_puts@s),tblptrl
  3276  000A90  C002  FFF6         	movff	(c:i2lcd_puts@s+1),tblptrh
  3277  000A94  C003  FFF7         	if	0	;tblptru may be non-zero
  3278  000A98                     	clrf	tblptru
  3280  000A98                     	if	0	;tblptru may be non-zero
  3281  000A98                     	global __mediumconst
  3282                           movlw	low highword(__mediumconst)
  3285  000A98                     	tblrd	*
  3286  000A98  0008               	
  3287                           	movf	tablat,w
  3288  000A9A  50F5               	iorlw	0
  3289  000A9C  0900               	btfss	status,2
  3290  000A9E  A4D8               	goto	i2u16_41
  3291  000AA0  EF54  F005         	goto	i2u16_40
  3292  000AA4  EF56  F005         i2u16_41:
  3293  000AA8                     	goto	i2l1093
  3294  000AA8  EF3C  F005         i2u16_40:
  3295  000AAC                     	goto	i2l138
  3296  000AAC  EF58  F005         	
  3297                           i2l137:
  3298  000AB0                     	line	67
  3299                           	
  3300                           i2l138:
  3301  000AB0                     	return	;funcret
  3302  000AB0  0012               	opt stack 0
  3303                           GLOBAL	__end_ofi2_lcd_puts
  3304                           	__end_ofi2_lcd_puts:
  3305  000AB2                     	signat	i2_lcd_puts,89
  3306                           	global	i2_lcd_clear
  3307                           
  3308 ;; *************** function i2_lcd_clear *****************
  3309 ;; Defined at:
  3310 ;;		line 52 in file "lcd.c"
  3311 ;; Parameters:    Size  Location     Type
  3312 ;;		None
  3313 ;; Auto vars:     Size  Location     Type
  3314 ;;		None
  3315 ;; Return value:  Size  Location     Type
  3316 ;;                  1    wreg      void 
  3317 ;; Registers used:
  3318 ;;		wreg, status,2, cstack
  3319 ;; Tracked objects:
  3320 ;;		On entry : 0/0
  3321 ;;		On exit  : 0/0
  3322 ;;		Unchanged: 0/0
  3323 ;; Data sizes:     COMRAM   BANK0   BANK1   BANK2   BANK3   BANK4   BANK5
  3324 ;;      Params:         0       0       0       0       0       0       0
  3325 ;;      Locals:         0       0       0       0       0       0       0
  3326 ;;      Temps:          1       0       0       0       0       0       0
  3327 ;;      Totals:         1       0       0       0       0       0       0
  3328 ;;Total ram usage:        1 bytes
  3329 ;; Hardware stack levels used:    1
  3330 ;; Hardware stack levels required when called:    1
  3331 ;; This function calls:
  3332 ;;		i2_lcd_write
  3333 ;; This function is called by:
  3334 ;;		_abrirPorta
  3335 ;;		_trocarSenha
  3336 ;;		_alarme
  3337 ;;		_desligAlarme
  3338 ;; This function uses a non-reentrant model
  3339 ;;
  3340                           psect	text13,class=CODE,space=0,reloc=2,group=0
  3341                           	line	52
  3342                           global __ptext13
  3343                           __ptext13:
  3344  000B6C                     psect	text13
  3345                           	file	"lcd.c"
  3346                           	line	52
  3347                           	global	__size_ofi2_lcd_clear
  3348                           	__size_ofi2_lcd_clear	equ	__end_ofi2_lcd_clear-i2_lcd_clear
  3349  0000                     	
  3350                           i2_lcd_clear:
  3351  000B6C                     ;incstack = 0
  3352                           	opt	stack 24
  3353                           	line	54
  3354                           	
  3355                           i2l1085:
  3356  000B6C                     ;lcd.c: 54:  LE0 = 0;
  3357                           	bcf	c:(31848/8),(31848)&7	;volatile
  3358  000B6C  908D               	line	55
  3359                           	
  3360                           i2l1087:
  3361  000B6E                     ;lcd.c: 55:  lcd_write(0x01);
  3362                           	movlw	(01h)&0ffh
  3363  000B6E  0E01               	
  3364                           	call	i2_lcd_write
  3365  000B70  ECCC  F005         	line	56
  3366                           	
  3367                           i2l1089:
  3368  000B74                     ;lcd.c: 56:  _delay((unsigned long)((2)*(4000000/4000.0)));
  3369                           	opt asmopt_push
  3370                           opt asmopt_off
  3371                           movlw	3
  3372  000B74  0E03               movwf	(??i2_lcd_clear+0+0)&0ffh,c,f
  3373  000B76  6E02               	movlw	152
  3374  000B78  0E98               i2u43_47:
  3375  000B7A                     decfsz	wreg,f
  3376  000B7A  2EE8               	bra	i2u43_47
  3377  000B7C  D7FE               	decfsz	(??i2_lcd_clear+0+0)&0ffh,c,f
  3378  000B7E  2E02               	bra	i2u43_47
  3379  000B80  D7FC               opt asmopt_pop
  3380                           
  3381                           	line	57
  3382                           	
  3383                           i2l132:
  3384  000B82                     	return	;funcret
  3385  000B82  0012               	opt stack 0
  3386                           GLOBAL	__end_ofi2_lcd_clear
  3387                           	__end_ofi2_lcd_clear:
  3388  000B84                     	signat	i2_lcd_clear,89
  3389                           	global	i2_lcd_write
  3390                           
  3391 ;; *************** function i2_lcd_write *****************
  3392 ;; Defined at:
  3393 ;;		line 38 in file "lcd.c"
  3394 ;; Parameters:    Size  Location     Type
  3395 ;;  c               1    wreg     unsigned char 
  3396 ;; Auto vars:     Size  Location     Type
  3397 ;;  c               1    0[COMRAM] unsigned char 
  3398 ;; Return value:  Size  Location     Type
  3399 ;;                  1    wreg      void 
  3400 ;; Registers used:
  3401 ;;		wreg, status,2, cstack
  3402 ;; Tracked objects:
  3403 ;;		On entry : 0/0
  3404 ;;		On exit  : 0/0
  3405 ;;		Unchanged: 0/0
  3406 ;; Data sizes:     COMRAM   BANK0   BANK1   BANK2   BANK3   BANK4   BANK5
  3407 ;;      Params:         0       0       0       0       0       0       0
  3408 ;;      Locals:         1       0       0       0       0       0       0
  3409 ;;      Temps:          0       0       0       0       0       0       0
  3410 ;;      Totals:         1       0       0       0       0       0       0
  3411 ;;Total ram usage:        1 bytes
  3412 ;; Hardware stack levels used:    1
  3413 ;; This function calls:
  3414 ;;		Nothing
  3415 ;; This function is called by:
  3416 ;;		_lcd_goto
  3417 ;;		i2_lcd_clear
  3418 ;;		i2_lcd_puts
  3419 ;; This function uses a non-reentrant model
  3420 ;;
  3421                           psect	text14,class=CODE,space=0,reloc=2,group=0
  3422                           	line	38
  3423                           global __ptext14
  3424                           __ptext14:
  3425  000B98                     psect	text14
  3426                           	file	"lcd.c"
  3427                           	line	38
  3428                           	global	__size_ofi2_lcd_write
  3429                           	__size_ofi2_lcd_write	equ	__end_ofi2_lcd_write-i2_lcd_write
  3430  0000                     	
  3431                           i2_lcd_write:
  3432  000B98                     ;incstack = 0
  3433                           	opt	stack 24
  3434                           ;i2lcd_write@c stored from wreg
  3435                           	movwf	((c:i2lcd_write@c)),c
  3436  000B98  6E01               	line	40
  3437                           	
  3438                           i2l1073:
  3439  000B9A                     ;lcd.c: 38: lcd_write(unsigned char c);lcd.c: 39: {;lcd.c: 40:  _delay((unsigned long)((
                                 1)*(4000000/4000.0)));
  3440                           	opt asmopt_push
  3441                           opt asmopt_off
  3442                           	movlw	200
  3443  000B9A  0EC8               i2u44_47:
  3444  000B9C                     	nop2
  3445  000B9C  D000               decfsz	wreg,f
  3446  000B9E  2EE8               	bra	i2u44_47
  3447  000BA0  D7FD               opt asmopt_pop
  3448                           
  3449                           	line	41
  3450                           	
  3451                           i2l1075:
  3452  000BA2                     ;lcd.c: 41:     PORTD = ( c );
  3453                           	movff	(c:i2lcd_write@c),(c:3971)	;volatile
  3454  000BA2  C001  FF83         	line	42
  3455                           	
  3456                           i2l1077:
  3457  000BA6                     ;lcd.c: 42:  ((LE1 = 1),(LE1=0));
  3458                           	bsf	c:(31849/8),(31849)&7	;volatile
  3459  000BA6  828D               	
  3460                           i2l1079:
  3461  000BA8                     	bcf	c:(31849/8),(31849)&7	;volatile
  3462  000BA8  928D               	line	45
  3463                           	
  3464                           i2l129:
  3465  000BAA                     	return	;funcret
  3466  000BAA  0012               	opt stack 0
  3467                           GLOBAL	__end_ofi2_lcd_write
  3468                           	__end_ofi2_lcd_write:
  3469  000BAC                     	signat	i2_lcd_write,89
  3470                           psect	smallconst
  3471                           	db 0	; dummy byte at the end
  3472  0006F9  00                 	global	__smallconst
  3473                           	global	__mediumconst
  3474                           	GLOBAL	__activetblptr
  3475                           __activetblptr	EQU	1
  3476  0000                     	psect	intsave_regs,class=BIGRAM,space=1,noexec
  3477                           	PSECT	rparam,class=COMRAM,space=1,noexec
  3478                           	GLOBAL	__Lrparam
  3479                           	FNCONF	rparam,??,?
  3480                           	GLOBAL	___rparam_used
  3481                           	___rparam_used EQU 1
  3482  0000                     	GLOBAL	___param_bank
  3483                           	___param_bank EQU 0
  3484  0000                     GLOBAL	__Lparam, __Hparam
  3485                           GLOBAL	__Lrparam, __Hrparam
  3486                           __Lparam	EQU	__Lrparam
  3487  0000                     __Hparam	EQU	__Hrparam
  3488  0000                            psect   temp,common,ovrld,class=COMRAM,space=1
  3489                           	global	btemp
  3490                           btemp:
  3491  000013                     	ds	1
  3492  000013                     	global	int$flags
  3493                           	int$flags	set btemp
  3494  0000                     	global	wtemp8
  3495                           	wtemp8 set btemp+1
  3496  0000                     	global	ttemp5
  3497                           	ttemp5 set btemp+1
  3498  0000                     	global	ttemp6
  3499                           	ttemp6 set btemp+4
  3500  0000                     	global	ttemp7
  3501                           	ttemp7 set btemp+8
  3502  0000                     	end


Data Sizes:
    Strings     248
    Constant    0
    Data        0
    BSS         4
    Persistent  0
    Stack       0

Auto Spaces:
    Space          Size  Autos    Used
    COMRAM          126     14      18
    BANK0           128      0       0
    BANK1           256      0       0
    BANK2           256      0       0
    BANK3           256      0       0
    BANK4           256      0       0
    BANK5           256      0       0

Pointer List with Targets:

    lcd_puts@s	PTR const unsigned char  size(2) Largest target is 28
		 -> STR_17(CODE[19]), STR_16(CODE[18]), STR_15(CODE[17]), STR_14(CODE[17]), 
		 -> STR_13(CODE[23]), STR_12(CODE[11]), STR_11(CODE[14]), STR_10(CODE[13]), 
		 -> STR_9(CODE[28]), STR_8(CODE[18]), STR_7(CODE[19]), STR_6(CODE[14]), 
		 -> STR_5(CODE[13]), STR_4(CODE[15]), STR_3(CODE[23]), STR_2(CODE[18]), 
		 -> STR_1(CODE[13]), 


Critical Paths under _main in COMRAM

    _main->_lcd_init
    _lcd_puts->_lcd_write
    _lcd_init->_lcd_clear
    _lcd_clear->_lcd_write

Critical Paths under _tmr in COMRAM

    _tmr->_desligAlarme
    _tmr->_trocarSenha
    _trocarSenha->i2_lcd_puts
    _desligAlarme->i2_lcd_puts
    _alarme->i2_lcd_puts
    _lcd_goto->i2_lcd_write
    _abrirPorta->i2_lcd_puts
    i2_lcd_puts->i2_lcd_write
    i2_lcd_clear->i2_lcd_write

Critical Paths under _main in BANK0

    None.

Critical Paths under _tmr in BANK0

    None.

Critical Paths under _main in BANK1

    None.

Critical Paths under _tmr in BANK1

    None.

Critical Paths under _main in BANK2

    None.

Critical Paths under _tmr in BANK2

    None.

Critical Paths under _main in BANK3

    None.

Critical Paths under _tmr in BANK3

    None.

Critical Paths under _main in BANK4

    None.

Critical Paths under _tmr in BANK4

    None.

Critical Paths under _main in BANK5

    None.

Critical Paths under _tmr in BANK5

    None.

Call Graph Tables:

 ---------------------------------------------------------------------------------
 (Depth) Function   	        Calls       Base Space   Used Autos Params    Refs
 ---------------------------------------------------------------------------------
 (0) _main                                                 1     1      0    1100
                                             13 COMRAM     1     1      0
                             _config
                          _lcd_clear
                           _lcd_init
                           _lcd_puts
 ---------------------------------------------------------------------------------
 (1) _lcd_puts                                             2     0      2    1040
                                             10 COMRAM     2     0      2
                          _lcd_write
 ---------------------------------------------------------------------------------
 (1) _lcd_init                                             2     2      0      45
                                             11 COMRAM     2     2      0
                          _lcd_clear
                          _lcd_write
 ---------------------------------------------------------------------------------
 (2) _lcd_clear                                            1     1      0      15
                                             10 COMRAM     1     1      0
                          _lcd_write
 ---------------------------------------------------------------------------------
 (2) _lcd_write                                            1     1      0      15
                                              9 COMRAM     1     1      0
 ---------------------------------------------------------------------------------
 (1) _config                                               0     0      0       0
 ---------------------------------------------------------------------------------
 Estimated maximum stack depth 2
 ---------------------------------------------------------------------------------
 (Depth) Function   	        Calls       Base Space   Used Autos Params    Refs
 ---------------------------------------------------------------------------------
 (4) _tmr                                                  4     4      0    1692
                                              5 COMRAM     4     4      0
                         _abrirPorta
                             _alarme
                       _desligAlarme
                        _trocarSenha
 ---------------------------------------------------------------------------------
 (5) _trocarSenha                                          2     2      0     445
                                              3 COMRAM     2     2      0
                           _lcd_goto
                        i2_lcd_clear
                         i2_lcd_puts
 ---------------------------------------------------------------------------------
 (5) _desligAlarme                                         2     2      0     401
                                              3 COMRAM     2     2      0
                        i2_lcd_clear
                         i2_lcd_puts
 ---------------------------------------------------------------------------------
 (5) _alarme                                               0     0      0     445
                           _lcd_goto
                        i2_lcd_clear
                         i2_lcd_puts
 ---------------------------------------------------------------------------------
 (6) _lcd_goto                                             1     1      0      44
                                              1 COMRAM     1     1      0
                        i2_lcd_write
 ---------------------------------------------------------------------------------
 (5) _abrirPorta                                           0     0      0     401
                        i2_lcd_clear
                         i2_lcd_puts
 ---------------------------------------------------------------------------------
 (6) i2_lcd_puts                                           2     0      2     379
                                              1 COMRAM     2     0      2
                        i2_lcd_write
 ---------------------------------------------------------------------------------
 (6) i2_lcd_clear                                          1     1      0      22
                                              1 COMRAM     1     1      0
                        i2_lcd_write
 ---------------------------------------------------------------------------------
 (7) i2_lcd_write                                          1     1      0      22
                                              0 COMRAM     1     1      0
 ---------------------------------------------------------------------------------
 Estimated maximum stack depth 7
 ---------------------------------------------------------------------------------

 Call Graph Graphs:

 _main (ROOT)
   _config
   _lcd_clear
     _lcd_write
   _lcd_init
     _lcd_clear
       _lcd_write
     _lcd_write
   _lcd_puts
     _lcd_write

 _tmr (ROOT)
   _abrirPorta
     i2_lcd_clear
       i2_lcd_write
     i2_lcd_puts
       i2_lcd_write
   _alarme
     _lcd_goto
       i2_lcd_write
     i2_lcd_clear
       i2_lcd_write
     i2_lcd_puts
       i2_lcd_write
   _desligAlarme
     i2_lcd_clear
       i2_lcd_write
     i2_lcd_puts
       i2_lcd_write
   _trocarSenha
     _lcd_goto
       i2_lcd_write
     i2_lcd_clear
       i2_lcd_write
     i2_lcd_puts
       i2_lcd_write

 Address spaces:
Name               Size   Autos  Total    Cost      Usage
BIGRAM             5FF      0       0      17        0.0%
EEDATA             100      0       0       0        0.0%
BITBANK5           100      0       0      16        0.0%
BANK5              100      0       0      14        0.0%
BITBANK4           100      0       0      12        0.0%
BANK4              100      0       0      13        0.0%
BITBANK3           100      0       0      10        0.0%
BANK3              100      0       0      11        0.0%
BITBANK2           100      0       0       8        0.0%
BANK2              100      0       0       9        0.0%
BITBANK1           100      0       0       6        0.0%
BANK1              100      0       0       7        0.0%
BITBANK0            80      0       0       4        0.0%
BANK0               80      0       0       5        0.0%
BITCOMRAM           7E      0       0       0        0.0%
COMRAM              7E      E      12       1       14.3%
BITSFR               0      0       0     200        0.0%
SFR                  0      0       0     200        0.0%
STACK                0      0       0       2        0.0%
NULL                 0      0       0       0        0.0%
ABS                  0      0      12      15        0.0%
DATA                 0      0      12       3        0.0%
CODE                 0      0       0       0        0.0%


Microchip Technology PIC18 Macro Assembler V2.00 build -1524193055 
Symbol Table                                                                                   Wed Dec 04 21:31:03 2019

                     l63 0A30                       l97 0912                       l98 097E  
                     l99 097A              __CFG_BORV$3 000000             __CFG_CP0$OFF 000000  
           __CFG_CP1$OFF 000000             __CFG_CP2$OFF 000000             __CFG_CP3$OFF 000000  
                    l100 0946                      l101 0946                      l102 0958  
                    l103 0982                      l104 0986                      l105 0986  
                    l132 0B6A                      l135 0A50                      l136 0A38  
                    l129 0B96                      l137 0A70                      l138 0A70  
                    l147 09EE                      l823 0B86                      l825 0B8E  
                    l841 0B56                      l827 0B92                      l843 0B5C  
                    l829 0B94                      l871 0A0A                      l863 09F0  
                    l839 0B54                      l865 09F8                      l961 098A  
                    _LE0 007C68                      l867 0A06                      l971 09A4  
                    l963 098E                      _LE1 007C69                      l869 0A08  
                    l981 09BC                      l973 09A6                      l965 0990  
                    l991 09D6                      l983 09C4                      l975 09A8  
                    l967 0992                      l993 09D8                      l985 09C6  
                    l977 09B8                      l969 09A0                      l995 09DE  
                    l987 09C8                      l979 09BA                      l997 09E4  
                    l989 09D4                      l999 09EA             __CFG_CPB$OFF 000000  
                    u230 0920                      u231 091C                      u240 093E  
                    u241 093A                      u170 0A6C                      u250 0954  
                    u171 0A68                      u251 0950                      u317 0926  
                    u327 0998                      u337 09AE             __CFG_CPD$OFF 000000  
                    u347 09BE                      u357 09CA                      u367 0B62  
                    u377 0B88                      _tmr 0008              lcd_goto@pos 0002  
                    wreg 000FE8              _trocarSenha 06FA             __CFG_LVP$OFF 000000  
           __CFG_WDT$OFF 000000                     l1111 0A48                     l1113 0A50  
                   l1201 08E8                     l1107 0A32                     l1211 08FE  
                   l1203 08F0                     l1109 0A38                     l1221 0942  
                   l1213 0902                     l1205 08F4                     l1231 096C  
                   l1223 0958                     l1215 0912                     l1207 08F8  
                   l1233 096E                     l1225 095C                     l1217 0920  
                   l1209 08FC                     l1227 0968                     l1219 0930  
                   l1229 096A               i2_lcd_puts 0A72                     ?_tmr 0001  
                   STR_1 06D4                     STR_2 0683                     STR_3 061D  
                   STR_4 06B7                     STR_5 06E1                     STR_6 06C6  
                   STR_7 065E                     STR_8 0671                     STR_9 0601  
                   _IPEN 007E87                     _RCIE 007CED                     _RCIF 007CF5  
                   i2l70 0B38                     _RCIP 007CFD                     i2l80 0830  
                   i2l81 0838                     i2l73 081A                     i2l74 0720  
                   i2l75 07BE                     i2l92 0AEE                     i2l76 07A6  
                   i2l77 07BA                     i2l78 0816                     i2l79 0812  
                   i2l89 0B18                     _flag 0011                     _main 08E8  
                   btemp 0013                     start 000E            __CFG_IESO$OFF 000000  
          __CFG_MCLRE$ON 000000             ___param_bank 000000                    ??_tmr 0006  
            i2_lcd_clear 0B6C                    ?_main 0001                    STR_12 06EE  
                  STR_13 0634                    STR_14 06A6                    STR_15 0695  
                  STR_16 0671                    STR_17 064B              i2_lcd_write 0B98  
                  _T0CON 000FD5                    i2l110 08D4                    i2l111 0876  
                  i2l112 08D0                    i2l113 0890                    i2l114 08CC  
                  i2l115 08AA                    i2l132 0B82                    i2l116 08C8  
                  i2l117 08C4                    i2l118 08D4                    i2l135 0A90  
                  i2l136 0A78                    i2l144 0BB8                    i2l129 0BAA  
                  i2l137 0AB0                    i2l138 0AB0                    _RCREG 000FAE  
                  _RCSTA 000FAB                    _SPBRG 000FAF                    _PORTB 000F81  
                  _PORTD 000F83                    _PORTE 000F84                    _TRISA 000F92  
                  _TRISB 000F93                    _TRISC 000F94                    _TRISD 000F95  
                  _TRISE 000F96                    _TXSTA 000FAC            __CFG_PWRT$OFF 000000  
          __CFG_WRT0$OFF 000000            __CFG_WRT1$OFF 000000            __CFG_WRT2$OFF 000000  
          __CFG_WRT3$OFF 000000           __CFG_EBTR0$OFF 000000           __CFG_FCMEN$OFF 000000  
         __CFG_EBTR1$OFF 000000           __CFG_EBTR2$OFF 000000           __CFG_EBTR3$OFF 000000  
          __CFG_WRTB$OFF 000000            __CFG_WRTC$OFF 000000            __CFG_WRTD$OFF 000000  
         __CFG_EBTRB$OFF 000000                    _flag1 000F                    tablat 000FF5  
                  ttemp5 0014                    ttemp6 0017                    ttemp7 001B  
                  status 000FD8                    wtemp8 0014          __initialization 0B3A  
           __end_of_main 098A     __end_of_desligAlarme 0AF0                   ??_main 000E  
          __activetblptr 000001              i2lcd_puts@s 0002                   _ADCON0 000FC2  
                 _ADCON1 000FC1                   _ADCON2 000FC0              ?i2_lcd_puts 0002  
                 i2l1101 0B20                   i2l1103 0B24                   i2l1105 0B30  
                 i2l1121 0710                   i2l1131 075A                   i2l1123 0722  
                 i2l1115 06FA                   i2l1141 0796                   i2l1133 075E  
                 i2l1125 0730                   i2l1117 06FE                   i2l1151 07D8  
                 i2l1143 07A6                   i2l1135 076A                   i2l1127 0740  
                 i2l1119 070A                   i2l1073 0B9A                   i2l1081 0BAE  
                 i2l1153 07DC                   i2l1145 07AA                   i2l1137 0780  
                 i2l1129 0752                   i2l1161 081A                   i2l1241 086E  
                 i2l1075 0BA2                   i2l1091 0A72                   i2l1083 0BB0  
                 i2l1171 0B06                   i2l1163 0830                   i2l1155 07E8  
                 i2l1139 0792                   i2l1147 07BE                   i2l1251 08AA  
                 i2l1243 0876                   i2l1235 084C                   i2l1077 0BA6  
                 i2l1085 0B6C                   i2l1093 0A78                   i2l1173 0B0C  
                 i2l1165 0AF0                   i2l1181 0AC8                   i2l1157 07FE  
                 i2l1149 07D0                   i2l1253 08BC                   i2l1245 0888  
                 i2l1237 085A                   i2l1079 0BA8                   i2l1087 0B6E  
                 i2l1095 0A88                   i2l1167 0AF6                   i2l1183 0ADE  
                 i2l1175 0AB2                   i2l1159 0802                   i2l1247 0890  
                 i2l1239 085C                   i2l1089 0B74                   i2l1097 0A90  
                 i2l1169 0AFA                   i2l1185 0AE2                   i2l1177 0AB8  
                 i2l1249 08A2                   i2l1099 0B1A                   i2l1179 0ABC  
                 _INTCON 000FF2                   _OSCCON 000FD3           __CFG_XINST$OFF 000000  
       __end_of_lcd_init 09F0         __end_of_lcd_goto 0BBA         __end_of_lcd_puts 0A72  
         __CFG_STVREN$ON 000000                   _alarme 0AF0                   _config 09F0  
           __mediumconst 0000                   tblptrh 000FF7                   tblptrl 000FF6  
                 tblptru 000FF8               __accesstop 0080  __end_of__initialization 0B42  
        __CFG_PBADEN$OFF 000000            ___rparam_used 000001           __pcstackCOMRAM 0001  
    __size_ofi2_lcd_puts 0040       __size_of_lcd_clear 0018             ?_trocarSenha 0001  
     __size_of_lcd_write 0014               _abrirPorta 0B1A    __size_of_desligAlarme 003E  
           i2lcd_write@c 0001                  ?_alarme 0001                  ?_config 0001  
                _BAUDCON 000FB8             ?i2_lcd_clear 0001             ?i2_lcd_write 0001  
                i2u20_40 07D0                  i2u20_41 07CC                  i2u21_40 082C  
                i2u21_41 0828                  i2u30_40 08BC                  i2u30_41 08B8  
                i2u16_40 0AAC                  i2u16_41 0AA8                  i2u40_47 0774  
                i2u41_47 07F2                  i2u18_40 0752                  i2u26_40 085A  
                i2u18_41 074E                  i2u26_41 0856                  i2u42_47 0AD2  
                i2u19_40 0792                  i2u27_40 086E                  i2u19_41 078E  
                i2u27_41 086A                  i2u43_47 0B7A                  i2u28_40 0888  
                i2u28_41 0884                  i2u44_47 0B9C                  i2u29_40 08A2  
                i2u29_41 089E                  i2u38_47 0728                  i2u39_47 0738  
              ?_lcd_init 0001                ?_lcd_goto 0001                ?_lcd_puts 000B  
           _desligAlarme 0AB2                  __Hparam 0000                  __Lparam 0000  
      __end_of_lcd_clear 0B6C        __end_of_lcd_write 0B98          __size_of_alarme 002A  
           __psmallconst 0600          __size_of_config 0042                  __pcinit 0B3A  
                __ramtop 0600                  __ptext0 08E8                  __ptext1 0A32  
                __ptext2 098A                  __ptext3 0B54                  __ptext4 0B84  
                __ptext5 09F0                  __ptext7 06FA                  __ptext8 0AB2  
                __ptext9 0AF0             __size_of_tmr 08E0              ?_abrirPorta 0001  
             ??_lcd_init 000C               ??_lcd_goto 0002             ??i2_lcd_puts 0004  
         __pintcode_body 083A               ??_lcd_puts 000D     end_of_initialization 0B42  
                int_func 083A       __end_ofi2_lcd_puts 0AB2                _PORTBbits 000F81  
              _PORTCbits 000F82     __size_of_trocarSenha 0140               lcd_write@c 000A  
    __size_of_abrirPorta 0020           __end_of_alarme 0B1A           __end_of_config 0A32  
   __size_ofi2_lcd_clear 0018      start_initialization 0B3A     __size_ofi2_lcd_write 0014  
            __end_of_tmr 08E8       lcd_init@init_value 000D         __CFG_OSC$INTIO67 000000  
               ??_alarme 0004                 ??_config 000A         __CFG_LPT1OSC$OFF 000000  
            __pbssCOMRAM 000F        __size_of_lcd_init 0066        __size_of_lcd_goto 000E  
      __size_of_lcd_puts 0040        __CFG_CCP2MX$PORTC 000000                __pintcode 0008  
              _lcd_clear 0B54                _lcd_write 0B84              __smallconst 0600  
           ??_abrirPorta 0004         __CFG_WDTPS$32768 000000               ?_lcd_clear 0001  
     __end_of_abrirPorta 0B3A               ?_lcd_write 0001                lcd_puts@s 000B  
               __Hrparam 0000                 __Lrparam 0000             __Lsmallconst 0600  
     __CFG_BOREN$SBORDIS 000000            ??_trocarSenha 0004                 __ptext10 0BAC  
               __ptext11 0B1A                 __ptext12 0A72                 __ptext13 0B6C  
               __ptext14 0B98                 _lcd_init 098A                 _lcd_goto 0BAC  
               _lcd_puts 0A32            __size_of_main 00A2                 int$flags 0013  
          ??i2_lcd_clear 0002              ??_lcd_clear 000B            ??i2_lcd_write 0001  
            ??_lcd_write 000A            ?_desligAlarme 0001                 intlevel2 0000  
    __end_of_trocarSenha 083A      __end_ofi2_lcd_clear 0B84      __end_ofi2_lcd_write 0BAC  
         ??_desligAlarme 0004  
